
/mnt/hgfs/_shares1/psakdev1-pv/out/mt2523_hdk/uart_loopback_data_dma/uart_loopback_data_dma.elf:     file format elf32-littlearm


Disassembly of section .text:

08010000 <Reset_Handler>:
 8010000:	f8df d074 	ldr.w	sp, [pc, #116]	; 8010078 <FillZero+0x56>
 8010004:	b672      	cpsid	i
 8010006:	f001 ffdf 	bl	8011fc8 <CachePreInit>
 801000a:	481c      	ldr	r0, [pc, #112]	; (801007c <FillZero+0x5a>)
 801000c:	491c      	ldr	r1, [pc, #112]	; (8010080 <FillZero+0x5e>)
 801000e:	6001      	str	r1, [r0, #0]
 8010010:	481c      	ldr	r0, [pc, #112]	; (8010084 <FillZero+0x62>)
 8010012:	491d      	ldr	r1, [pc, #116]	; (8010088 <FillZero+0x66>)
 8010014:	4a1d      	ldr	r2, [pc, #116]	; (801008c <FillZero+0x6a>)
 8010016:	f842 0b04 	str.w	r0, [r2], #4
 801001a:	6011      	str	r1, [r2, #0]
 801001c:	2000      	movs	r0, #0
 801001e:	491c      	ldr	r1, [pc, #112]	; (8010090 <FillZero+0x6e>)
 8010020:	4a15      	ldr	r2, [pc, #84]	; (8010078 <FillZero+0x56>)

08010022 <FillZero>:
 8010022:	f841 0b04 	str.w	r0, [r1], #4
 8010026:	4291      	cmp	r1, r2
 8010028:	f4ff affb 	bcc.w	8010022 <FillZero>
 801002c:	4919      	ldr	r1, [pc, #100]	; (8010094 <FillZero+0x72>)
 801002e:	4a1a      	ldr	r2, [pc, #104]	; (8010098 <FillZero+0x76>)
 8010030:	4b1a      	ldr	r3, [pc, #104]	; (801009c <FillZero+0x7a>)
 8010032:	f001 ffe3 	bl	8011ffc <CopyDataLoop>
 8010036:	491a      	ldr	r1, [pc, #104]	; (80100a0 <FillZero+0x7e>)
 8010038:	4a1a      	ldr	r2, [pc, #104]	; (80100a4 <FillZero+0x82>)
 801003a:	4b1b      	ldr	r3, [pc, #108]	; (80100a8 <FillZero+0x86>)
 801003c:	f001 ffde 	bl	8011ffc <CopyDataLoop>
 8010040:	4a1a      	ldr	r2, [pc, #104]	; (80100ac <FillZero+0x8a>)
 8010042:	4b1b      	ldr	r3, [pc, #108]	; (80100b0 <FillZero+0x8e>)
 8010044:	f001 ffe3 	bl	801200e <Bss_Init>
 8010048:	491a      	ldr	r1, [pc, #104]	; (80100b4 <FillZero+0x92>)
 801004a:	4a1b      	ldr	r2, [pc, #108]	; (80100b8 <FillZero+0x96>)
 801004c:	4b1b      	ldr	r3, [pc, #108]	; (80100bc <FillZero+0x9a>)
 801004e:	f001 ffd5 	bl	8011ffc <CopyDataLoop>
 8010052:	4a1b      	ldr	r2, [pc, #108]	; (80100c0 <FillZero+0x9e>)
 8010054:	4b1b      	ldr	r3, [pc, #108]	; (80100c4 <FillZero+0xa2>)
 8010056:	f001 ffda 	bl	801200e <Bss_Init>
 801005a:	491b      	ldr	r1, [pc, #108]	; (80100c8 <FillZero+0xa6>)
 801005c:	4a1b      	ldr	r2, [pc, #108]	; (80100cc <FillZero+0xaa>)
 801005e:	4b1c      	ldr	r3, [pc, #112]	; (80100d0 <FillZero+0xae>)
 8010060:	f001 ffcc 	bl	8011ffc <CopyDataLoop>
 8010064:	4a1b      	ldr	r2, [pc, #108]	; (80100d4 <FillZero+0xb2>)
 8010066:	4b1c      	ldr	r3, [pc, #112]	; (80100d8 <FillZero+0xb6>)
 8010068:	f001 ffd1 	bl	801200e <Bss_Init>
 801006c:	f001 ff9c 	bl	8011fa8 <SystemInit>
 8010070:	f001 ff29 	bl	8011ec6 <main>
 8010074:	4770      	bx	lr
 8010076:	80000000 	andhi	r0, r0, r0
 801007a:	00000402 	andeq	r0, r0, r2, lsl #8
 801007e:	2200a205 	andcs	sl, r0, #1342177280	; 0x50000000
 8010082:	00230000 	eoreq	r0, r3, r0
 8010086:	00001000 	andeq	r1, r0, r0
 801008a:	10000000 	andne	r0, r0, r0
 801008e:	7000a088 	andvc	sl, r0, r8, lsl #1
 8010092:	3d940402 	cfldrscc	mvf0, [r4, #8]
 8010096:	00000801 	andeq	r0, r0, r1, lsl #16
 801009a:	14500000 	ldrbne	r0, [r0], #-0
 801009e:	51ec0000 	mvnpl	r0, r0
 80100a2:	14580801 	ldrbne	r0, [r8], #-2049	; 0x801
 80100a6:	14580000 	ldrbne	r0, [r8], #-0
 80100aa:	14580000 	ldrbne	r0, [r8], #-0
 80100ae:	16580000 	ldrbne	r0, [r8], -r0
 80100b2:	51ec0000 	mvnpl	r0, r0
 80100b6:	16600801 	strbtne	r0, [r0], -r1, lsl #16
 80100ba:	17d41000 	ldrbne	r1, [r4, r0]
 80100be:	17d41000 	ldrbne	r1, [r4, r0]
 80100c2:	1e301000 	cdpne	0, 3, cr1, cr0, cr0, {0}
 80100c6:	53601000 	cmnpl	r0, #0
 80100ca:	80000801 	andhi	r0, r0, r1, lsl #16
 80100ce:	ac9c0400 	cfldrsge	mvf0, [ip], {0}
 80100d2:	ac9c0400 	cfldrsge	mvf0, [ip], {0}
 80100d6:	b7040400 	strlt	r0, [r4, -r0, lsl #8]
 80100da:	b94b0400 	stmdblt	fp, {sl}^

080100dc <__aeabi_uldivmod>:
 80100dc:	b94b      	cbnz	r3, 80100f2 <__aeabi_uldivmod+0x16>
 80100de:	b942      	cbnz	r2, 80100f2 <__aeabi_uldivmod+0x16>
 80100e0:	2900      	cmp	r1, #0
 80100e2:	bf08      	it	eq
 80100e4:	2800      	cmpeq	r0, #0
 80100e6:	d002      	beq.n	80100ee <__aeabi_uldivmod+0x12>
 80100e8:	f04f 31ff 	mov.w	r1, #4294967295
 80100ec:	4608      	mov	r0, r1
 80100ee:	f000 b83b 	b.w	8010168 <__aeabi_idiv0>
 80100f2:	b082      	sub	sp, #8
 80100f4:	46ec      	mov	ip, sp
 80100f6:	e92d 5000 	stmdb	sp!, {ip, lr}
 80100fa:	f000 f81d 	bl	8010138 <__gnu_uldivmod_helper>
 80100fe:	f8dd e004 	ldr.w	lr, [sp, #4]
 8010102:	b002      	add	sp, #8
 8010104:	bc0c      	pop	{r2, r3}
 8010106:	4770      	bx	lr

08010108 <__gnu_ldivmod_helper>:
 8010108:	e92d 4370 	stmdb	sp!, {r4, r5, r6, r8, r9, lr}
 801010c:	9e06      	ldr	r6, [sp, #24]
 801010e:	4614      	mov	r4, r2
 8010110:	461d      	mov	r5, r3
 8010112:	4680      	mov	r8, r0
 8010114:	4689      	mov	r9, r1
 8010116:	f000 f829 	bl	801016c <__divdi3>
 801011a:	fb04 f301 	mul.w	r3, r4, r1
 801011e:	fb00 3305 	mla	r3, r0, r5, r3
 8010122:	fba4 4500 	umull	r4, r5, r4, r0
 8010126:	441d      	add	r5, r3
 8010128:	ebb8 0404 	subs.w	r4, r8, r4
 801012c:	eb69 0505 	sbc.w	r5, r9, r5
 8010130:	e9c6 4500 	strd	r4, r5, [r6]
 8010134:	e8bd 8370 	ldmia.w	sp!, {r4, r5, r6, r8, r9, pc}

08010138 <__gnu_uldivmod_helper>:
 8010138:	e92d 4370 	stmdb	sp!, {r4, r5, r6, r8, r9, lr}
 801013c:	9e06      	ldr	r6, [sp, #24]
 801013e:	4614      	mov	r4, r2
 8010140:	4680      	mov	r8, r0
 8010142:	4689      	mov	r9, r1
 8010144:	461d      	mov	r5, r3
 8010146:	f000 f95d 	bl	8010404 <__udivdi3>
 801014a:	fb00 f505 	mul.w	r5, r0, r5
 801014e:	fb04 5301 	mla	r3, r4, r1, r5
 8010152:	fba0 4504 	umull	r4, r5, r0, r4
 8010156:	441d      	add	r5, r3
 8010158:	ebb8 0404 	subs.w	r4, r8, r4
 801015c:	eb69 0505 	sbc.w	r5, r9, r5
 8010160:	e9c6 4500 	strd	r4, r5, [r6]
 8010164:	e8bd 8370 	ldmia.w	sp!, {r4, r5, r6, r8, r9, pc}

08010168 <__aeabi_idiv0>:
 8010168:	4770      	bx	lr
 801016a:	bf00      	nop

0801016c <__divdi3>:
 801016c:	2900      	cmp	r1, #0
 801016e:	e92d 0ff0 	stmdb	sp!, {r4, r5, r6, r7, r8, r9, sl, fp}
 8010172:	f2c0 809f 	blt.w	80102b4 <__divdi3+0x148>
 8010176:	2400      	movs	r4, #0
 8010178:	2b00      	cmp	r3, #0
 801017a:	f2c0 8096 	blt.w	80102aa <__divdi3+0x13e>
 801017e:	4615      	mov	r5, r2
 8010180:	4606      	mov	r6, r0
 8010182:	460f      	mov	r7, r1
 8010184:	2b00      	cmp	r3, #0
 8010186:	d13e      	bne.n	8010206 <__divdi3+0x9a>
 8010188:	428a      	cmp	r2, r1
 801018a:	d957      	bls.n	801023c <__divdi3+0xd0>
 801018c:	fab2 f382 	clz	r3, r2
 8010190:	b14b      	cbz	r3, 80101a6 <__divdi3+0x3a>
 8010192:	f1c3 0220 	rsb	r2, r3, #32
 8010196:	fa01 f703 	lsl.w	r7, r1, r3
 801019a:	fa20 f202 	lsr.w	r2, r0, r2
 801019e:	409d      	lsls	r5, r3
 80101a0:	4317      	orrs	r7, r2
 80101a2:	fa00 f603 	lsl.w	r6, r0, r3
 80101a6:	0c29      	lsrs	r1, r5, #16
 80101a8:	fbb7 f2f1 	udiv	r2, r7, r1
 80101ac:	0c33      	lsrs	r3, r6, #16
 80101ae:	fb01 7c12 	mls	ip, r1, r2, r7
 80101b2:	b2a8      	uxth	r0, r5
 80101b4:	ea43 470c 	orr.w	r7, r3, ip, lsl #16
 80101b8:	fb00 f302 	mul.w	r3, r0, r2
 80101bc:	42bb      	cmp	r3, r7
 80101be:	d909      	bls.n	80101d4 <__divdi3+0x68>
 80101c0:	197f      	adds	r7, r7, r5
 80101c2:	f102 3cff 	add.w	ip, r2, #4294967295
 80101c6:	f080 8101 	bcs.w	80103cc <__divdi3+0x260>
 80101ca:	42bb      	cmp	r3, r7
 80101cc:	f240 80fe 	bls.w	80103cc <__divdi3+0x260>
 80101d0:	3a02      	subs	r2, #2
 80101d2:	442f      	add	r7, r5
 80101d4:	1aff      	subs	r7, r7, r3
 80101d6:	fbb7 f3f1 	udiv	r3, r7, r1
 80101da:	b2b6      	uxth	r6, r6
 80101dc:	fb01 7113 	mls	r1, r1, r3, r7
 80101e0:	ea46 4101 	orr.w	r1, r6, r1, lsl #16
 80101e4:	fb00 f003 	mul.w	r0, r0, r3
 80101e8:	4288      	cmp	r0, r1
 80101ea:	d908      	bls.n	80101fe <__divdi3+0x92>
 80101ec:	1949      	adds	r1, r1, r5
 80101ee:	f103 37ff 	add.w	r7, r3, #4294967295
 80101f2:	f080 80ed 	bcs.w	80103d0 <__divdi3+0x264>
 80101f6:	4288      	cmp	r0, r1
 80101f8:	f240 80ea 	bls.w	80103d0 <__divdi3+0x264>
 80101fc:	3b02      	subs	r3, #2
 80101fe:	ea43 4202 	orr.w	r2, r3, r2, lsl #16
 8010202:	2300      	movs	r3, #0
 8010204:	e003      	b.n	801020e <__divdi3+0xa2>
 8010206:	428b      	cmp	r3, r1
 8010208:	d90a      	bls.n	8010220 <__divdi3+0xb4>
 801020a:	2300      	movs	r3, #0
 801020c:	461a      	mov	r2, r3
 801020e:	4610      	mov	r0, r2
 8010210:	4619      	mov	r1, r3
 8010212:	b114      	cbz	r4, 801021a <__divdi3+0xae>
 8010214:	4240      	negs	r0, r0
 8010216:	eb61 0141 	sbc.w	r1, r1, r1, lsl #1
 801021a:	e8bd 0ff0 	ldmia.w	sp!, {r4, r5, r6, r7, r8, r9, sl, fp}
 801021e:	4770      	bx	lr
 8010220:	fab3 f883 	clz	r8, r3
 8010224:	f1b8 0f00 	cmp.w	r8, #0
 8010228:	f040 8084 	bne.w	8010334 <__divdi3+0x1c8>
 801022c:	428b      	cmp	r3, r1
 801022e:	d302      	bcc.n	8010236 <__divdi3+0xca>
 8010230:	4282      	cmp	r2, r0
 8010232:	f200 80de 	bhi.w	80103f2 <__divdi3+0x286>
 8010236:	2300      	movs	r3, #0
 8010238:	2201      	movs	r2, #1
 801023a:	e7e8      	b.n	801020e <__divdi3+0xa2>
 801023c:	b912      	cbnz	r2, 8010244 <__divdi3+0xd8>
 801023e:	2301      	movs	r3, #1
 8010240:	fbb3 f5f2 	udiv	r5, r3, r2
 8010244:	fab5 f285 	clz	r2, r5
 8010248:	2a00      	cmp	r2, #0
 801024a:	d139      	bne.n	80102c0 <__divdi3+0x154>
 801024c:	1b7f      	subs	r7, r7, r5
 801024e:	0c28      	lsrs	r0, r5, #16
 8010250:	fa1f fc85 	uxth.w	ip, r5
 8010254:	2301      	movs	r3, #1
 8010256:	fbb7 f1f0 	udiv	r1, r7, r0
 801025a:	0c32      	lsrs	r2, r6, #16
 801025c:	fb00 7711 	mls	r7, r0, r1, r7
 8010260:	ea42 4707 	orr.w	r7, r2, r7, lsl #16
 8010264:	fb0c f201 	mul.w	r2, ip, r1
 8010268:	42ba      	cmp	r2, r7
 801026a:	d907      	bls.n	801027c <__divdi3+0x110>
 801026c:	197f      	adds	r7, r7, r5
 801026e:	f101 38ff 	add.w	r8, r1, #4294967295
 8010272:	d202      	bcs.n	801027a <__divdi3+0x10e>
 8010274:	42ba      	cmp	r2, r7
 8010276:	f200 80c1 	bhi.w	80103fc <__divdi3+0x290>
 801027a:	4641      	mov	r1, r8
 801027c:	1abf      	subs	r7, r7, r2
 801027e:	fbb7 f2f0 	udiv	r2, r7, r0
 8010282:	b2b6      	uxth	r6, r6
 8010284:	fb00 7012 	mls	r0, r0, r2, r7
 8010288:	ea46 4000 	orr.w	r0, r6, r0, lsl #16
 801028c:	fb0c fc02 	mul.w	ip, ip, r2
 8010290:	4584      	cmp	ip, r0
 8010292:	d907      	bls.n	80102a4 <__divdi3+0x138>
 8010294:	1940      	adds	r0, r0, r5
 8010296:	f102 37ff 	add.w	r7, r2, #4294967295
 801029a:	d202      	bcs.n	80102a2 <__divdi3+0x136>
 801029c:	4584      	cmp	ip, r0
 801029e:	f200 80ab 	bhi.w	80103f8 <__divdi3+0x28c>
 80102a2:	463a      	mov	r2, r7
 80102a4:	ea42 4201 	orr.w	r2, r2, r1, lsl #16
 80102a8:	e7b1      	b.n	801020e <__divdi3+0xa2>
 80102aa:	43e4      	mvns	r4, r4
 80102ac:	4252      	negs	r2, r2
 80102ae:	eb63 0343 	sbc.w	r3, r3, r3, lsl #1
 80102b2:	e764      	b.n	801017e <__divdi3+0x12>
 80102b4:	4240      	negs	r0, r0
 80102b6:	eb61 0141 	sbc.w	r1, r1, r1, lsl #1
 80102ba:	f04f 34ff 	mov.w	r4, #4294967295
 80102be:	e75b      	b.n	8010178 <__divdi3+0xc>
 80102c0:	4095      	lsls	r5, r2
 80102c2:	f1c2 0320 	rsb	r3, r2, #32
 80102c6:	fa27 f103 	lsr.w	r1, r7, r3
 80102ca:	0c28      	lsrs	r0, r5, #16
 80102cc:	fa26 f303 	lsr.w	r3, r6, r3
 80102d0:	4097      	lsls	r7, r2
 80102d2:	fbb1 f8f0 	udiv	r8, r1, r0
 80102d6:	431f      	orrs	r7, r3
 80102d8:	0c3b      	lsrs	r3, r7, #16
 80102da:	fb00 1118 	mls	r1, r0, r8, r1
 80102de:	fa1f fc85 	uxth.w	ip, r5
 80102e2:	ea43 4101 	orr.w	r1, r3, r1, lsl #16
 80102e6:	fb0c f308 	mul.w	r3, ip, r8
 80102ea:	428b      	cmp	r3, r1
 80102ec:	fa06 f602 	lsl.w	r6, r6, r2
 80102f0:	d908      	bls.n	8010304 <__divdi3+0x198>
 80102f2:	1949      	adds	r1, r1, r5
 80102f4:	f108 32ff 	add.w	r2, r8, #4294967295
 80102f8:	d279      	bcs.n	80103ee <__divdi3+0x282>
 80102fa:	428b      	cmp	r3, r1
 80102fc:	d977      	bls.n	80103ee <__divdi3+0x282>
 80102fe:	f1a8 0802 	sub.w	r8, r8, #2
 8010302:	4429      	add	r1, r5
 8010304:	1ac9      	subs	r1, r1, r3
 8010306:	fbb1 f3f0 	udiv	r3, r1, r0
 801030a:	b2bf      	uxth	r7, r7
 801030c:	fb00 1113 	mls	r1, r0, r3, r1
 8010310:	ea47 4701 	orr.w	r7, r7, r1, lsl #16
 8010314:	fb0c f203 	mul.w	r2, ip, r3
 8010318:	42ba      	cmp	r2, r7
 801031a:	d907      	bls.n	801032c <__divdi3+0x1c0>
 801031c:	197f      	adds	r7, r7, r5
 801031e:	f103 31ff 	add.w	r1, r3, #4294967295
 8010322:	d260      	bcs.n	80103e6 <__divdi3+0x27a>
 8010324:	42ba      	cmp	r2, r7
 8010326:	d95e      	bls.n	80103e6 <__divdi3+0x27a>
 8010328:	3b02      	subs	r3, #2
 801032a:	442f      	add	r7, r5
 801032c:	1abf      	subs	r7, r7, r2
 801032e:	ea43 4308 	orr.w	r3, r3, r8, lsl #16
 8010332:	e790      	b.n	8010256 <__divdi3+0xea>
 8010334:	f1c8 0220 	rsb	r2, r8, #32
 8010338:	fa03 fc08 	lsl.w	ip, r3, r8
 801033c:	fa25 f302 	lsr.w	r3, r5, r2
 8010340:	ea43 0c0c 	orr.w	ip, r3, ip
 8010344:	ea4f 491c 	mov.w	r9, ip, lsr #16
 8010348:	fa21 f302 	lsr.w	r3, r1, r2
 801034c:	fa01 f708 	lsl.w	r7, r1, r8
 8010350:	fa20 f202 	lsr.w	r2, r0, r2
 8010354:	fbb3 f1f9 	udiv	r1, r3, r9
 8010358:	4317      	orrs	r7, r2
 801035a:	fb09 3311 	mls	r3, r9, r1, r3
 801035e:	0c3a      	lsrs	r2, r7, #16
 8010360:	fa1f fb8c 	uxth.w	fp, ip
 8010364:	ea42 4303 	orr.w	r3, r2, r3, lsl #16
 8010368:	fb0b fa01 	mul.w	sl, fp, r1
 801036c:	459a      	cmp	sl, r3
 801036e:	fa05 f008 	lsl.w	r0, r5, r8
 8010372:	d908      	bls.n	8010386 <__divdi3+0x21a>
 8010374:	eb13 030c 	adds.w	r3, r3, ip
 8010378:	f101 32ff 	add.w	r2, r1, #4294967295
 801037c:	d235      	bcs.n	80103ea <__divdi3+0x27e>
 801037e:	459a      	cmp	sl, r3
 8010380:	d933      	bls.n	80103ea <__divdi3+0x27e>
 8010382:	3902      	subs	r1, #2
 8010384:	4463      	add	r3, ip
 8010386:	ebca 0303 	rsb	r3, sl, r3
 801038a:	fbb3 f2f9 	udiv	r2, r3, r9
 801038e:	fb09 3312 	mls	r3, r9, r2, r3
 8010392:	b2bf      	uxth	r7, r7
 8010394:	ea47 4703 	orr.w	r7, r7, r3, lsl #16
 8010398:	fb0b f902 	mul.w	r9, fp, r2
 801039c:	45b9      	cmp	r9, r7
 801039e:	d908      	bls.n	80103b2 <__divdi3+0x246>
 80103a0:	eb17 070c 	adds.w	r7, r7, ip
 80103a4:	f102 33ff 	add.w	r3, r2, #4294967295
 80103a8:	d21b      	bcs.n	80103e2 <__divdi3+0x276>
 80103aa:	45b9      	cmp	r9, r7
 80103ac:	d919      	bls.n	80103e2 <__divdi3+0x276>
 80103ae:	3a02      	subs	r2, #2
 80103b0:	4467      	add	r7, ip
 80103b2:	ea42 4501 	orr.w	r5, r2, r1, lsl #16
 80103b6:	fba5 0100 	umull	r0, r1, r5, r0
 80103ba:	ebc9 0707 	rsb	r7, r9, r7
 80103be:	428f      	cmp	r7, r1
 80103c0:	f04f 0300 	mov.w	r3, #0
 80103c4:	d30a      	bcc.n	80103dc <__divdi3+0x270>
 80103c6:	d005      	beq.n	80103d4 <__divdi3+0x268>
 80103c8:	462a      	mov	r2, r5
 80103ca:	e720      	b.n	801020e <__divdi3+0xa2>
 80103cc:	4662      	mov	r2, ip
 80103ce:	e701      	b.n	80101d4 <__divdi3+0x68>
 80103d0:	463b      	mov	r3, r7
 80103d2:	e714      	b.n	80101fe <__divdi3+0x92>
 80103d4:	fa06 f608 	lsl.w	r6, r6, r8
 80103d8:	4286      	cmp	r6, r0
 80103da:	d2f5      	bcs.n	80103c8 <__divdi3+0x25c>
 80103dc:	1e6a      	subs	r2, r5, #1
 80103de:	2300      	movs	r3, #0
 80103e0:	e715      	b.n	801020e <__divdi3+0xa2>
 80103e2:	461a      	mov	r2, r3
 80103e4:	e7e5      	b.n	80103b2 <__divdi3+0x246>
 80103e6:	460b      	mov	r3, r1
 80103e8:	e7a0      	b.n	801032c <__divdi3+0x1c0>
 80103ea:	4611      	mov	r1, r2
 80103ec:	e7cb      	b.n	8010386 <__divdi3+0x21a>
 80103ee:	4690      	mov	r8, r2
 80103f0:	e788      	b.n	8010304 <__divdi3+0x198>
 80103f2:	4643      	mov	r3, r8
 80103f4:	4642      	mov	r2, r8
 80103f6:	e70a      	b.n	801020e <__divdi3+0xa2>
 80103f8:	3a02      	subs	r2, #2
 80103fa:	e753      	b.n	80102a4 <__divdi3+0x138>
 80103fc:	3902      	subs	r1, #2
 80103fe:	442f      	add	r7, r5
 8010400:	e73c      	b.n	801027c <__divdi3+0x110>
 8010402:	bf00      	nop

08010404 <__udivdi3>:
 8010404:	e92d 0ff0 	stmdb	sp!, {r4, r5, r6, r7, r8, r9, sl, fp}
 8010408:	4614      	mov	r4, r2
 801040a:	4605      	mov	r5, r0
 801040c:	460e      	mov	r6, r1
 801040e:	2b00      	cmp	r3, #0
 8010410:	d143      	bne.n	801049a <__udivdi3+0x96>
 8010412:	428a      	cmp	r2, r1
 8010414:	d953      	bls.n	80104be <__udivdi3+0xba>
 8010416:	fab2 f782 	clz	r7, r2
 801041a:	b157      	cbz	r7, 8010432 <__udivdi3+0x2e>
 801041c:	f1c7 0620 	rsb	r6, r7, #32
 8010420:	fa20 f606 	lsr.w	r6, r0, r6
 8010424:	fa01 f307 	lsl.w	r3, r1, r7
 8010428:	fa02 f407 	lsl.w	r4, r2, r7
 801042c:	431e      	orrs	r6, r3
 801042e:	fa00 f507 	lsl.w	r5, r0, r7
 8010432:	0c21      	lsrs	r1, r4, #16
 8010434:	fbb6 f2f1 	udiv	r2, r6, r1
 8010438:	0c2b      	lsrs	r3, r5, #16
 801043a:	fb01 6712 	mls	r7, r1, r2, r6
 801043e:	b2a0      	uxth	r0, r4
 8010440:	ea43 4607 	orr.w	r6, r3, r7, lsl #16
 8010444:	fb00 f302 	mul.w	r3, r0, r2
 8010448:	42b3      	cmp	r3, r6
 801044a:	d909      	bls.n	8010460 <__udivdi3+0x5c>
 801044c:	1936      	adds	r6, r6, r4
 801044e:	f102 37ff 	add.w	r7, r2, #4294967295
 8010452:	f080 80f6 	bcs.w	8010642 <__udivdi3+0x23e>
 8010456:	42b3      	cmp	r3, r6
 8010458:	f240 80f3 	bls.w	8010642 <__udivdi3+0x23e>
 801045c:	3a02      	subs	r2, #2
 801045e:	4426      	add	r6, r4
 8010460:	1af6      	subs	r6, r6, r3
 8010462:	fbb6 f3f1 	udiv	r3, r6, r1
 8010466:	b2ad      	uxth	r5, r5
 8010468:	fb01 6113 	mls	r1, r1, r3, r6
 801046c:	ea45 4101 	orr.w	r1, r5, r1, lsl #16
 8010470:	fb00 f003 	mul.w	r0, r0, r3
 8010474:	4288      	cmp	r0, r1
 8010476:	d908      	bls.n	801048a <__udivdi3+0x86>
 8010478:	1909      	adds	r1, r1, r4
 801047a:	f103 36ff 	add.w	r6, r3, #4294967295
 801047e:	f080 80e2 	bcs.w	8010646 <__udivdi3+0x242>
 8010482:	4288      	cmp	r0, r1
 8010484:	f240 80df 	bls.w	8010646 <__udivdi3+0x242>
 8010488:	3b02      	subs	r3, #2
 801048a:	ea43 4202 	orr.w	r2, r3, r2, lsl #16
 801048e:	2300      	movs	r3, #0
 8010490:	4610      	mov	r0, r2
 8010492:	4619      	mov	r1, r3
 8010494:	e8bd 0ff0 	ldmia.w	sp!, {r4, r5, r6, r7, r8, r9, sl, fp}
 8010498:	4770      	bx	lr
 801049a:	428b      	cmp	r3, r1
 801049c:	d84a      	bhi.n	8010534 <__udivdi3+0x130>
 801049e:	fab3 f683 	clz	r6, r3
 80104a2:	2e00      	cmp	r6, #0
 80104a4:	d14d      	bne.n	8010542 <__udivdi3+0x13e>
 80104a6:	428b      	cmp	r3, r1
 80104a8:	d302      	bcc.n	80104b0 <__udivdi3+0xac>
 80104aa:	4282      	cmp	r2, r0
 80104ac:	f200 80d6 	bhi.w	801065c <__udivdi3+0x258>
 80104b0:	2300      	movs	r3, #0
 80104b2:	2201      	movs	r2, #1
 80104b4:	4610      	mov	r0, r2
 80104b6:	4619      	mov	r1, r3
 80104b8:	e8bd 0ff0 	ldmia.w	sp!, {r4, r5, r6, r7, r8, r9, sl, fp}
 80104bc:	4770      	bx	lr
 80104be:	b912      	cbnz	r2, 80104c6 <__udivdi3+0xc2>
 80104c0:	2401      	movs	r4, #1
 80104c2:	fbb4 f4f2 	udiv	r4, r4, r2
 80104c6:	fab4 f284 	clz	r2, r4
 80104ca:	2a00      	cmp	r2, #0
 80104cc:	d17c      	bne.n	80105c8 <__udivdi3+0x1c4>
 80104ce:	1b09      	subs	r1, r1, r4
 80104d0:	0c26      	lsrs	r6, r4, #16
 80104d2:	b2a7      	uxth	r7, r4
 80104d4:	2301      	movs	r3, #1
 80104d6:	fbb1 f0f6 	udiv	r0, r1, r6
 80104da:	0c2a      	lsrs	r2, r5, #16
 80104dc:	fb06 1110 	mls	r1, r6, r0, r1
 80104e0:	ea42 4101 	orr.w	r1, r2, r1, lsl #16
 80104e4:	fb07 f200 	mul.w	r2, r7, r0
 80104e8:	428a      	cmp	r2, r1
 80104ea:	d907      	bls.n	80104fc <__udivdi3+0xf8>
 80104ec:	1909      	adds	r1, r1, r4
 80104ee:	f100 3cff 	add.w	ip, r0, #4294967295
 80104f2:	d202      	bcs.n	80104fa <__udivdi3+0xf6>
 80104f4:	428a      	cmp	r2, r1
 80104f6:	f200 80c3 	bhi.w	8010680 <__udivdi3+0x27c>
 80104fa:	4660      	mov	r0, ip
 80104fc:	1a89      	subs	r1, r1, r2
 80104fe:	fbb1 f2f6 	udiv	r2, r1, r6
 8010502:	b2ad      	uxth	r5, r5
 8010504:	fb06 1112 	mls	r1, r6, r2, r1
 8010508:	ea45 4501 	orr.w	r5, r5, r1, lsl #16
 801050c:	fb07 f702 	mul.w	r7, r7, r2
 8010510:	42af      	cmp	r7, r5
 8010512:	d908      	bls.n	8010526 <__udivdi3+0x122>
 8010514:	192c      	adds	r4, r5, r4
 8010516:	f102 31ff 	add.w	r1, r2, #4294967295
 801051a:	f080 8096 	bcs.w	801064a <__udivdi3+0x246>
 801051e:	42a7      	cmp	r7, r4
 8010520:	f240 8093 	bls.w	801064a <__udivdi3+0x246>
 8010524:	3a02      	subs	r2, #2
 8010526:	ea42 4200 	orr.w	r2, r2, r0, lsl #16
 801052a:	4610      	mov	r0, r2
 801052c:	4619      	mov	r1, r3
 801052e:	e8bd 0ff0 	ldmia.w	sp!, {r4, r5, r6, r7, r8, r9, sl, fp}
 8010532:	4770      	bx	lr
 8010534:	2300      	movs	r3, #0
 8010536:	461a      	mov	r2, r3
 8010538:	4610      	mov	r0, r2
 801053a:	4619      	mov	r1, r3
 801053c:	e8bd 0ff0 	ldmia.w	sp!, {r4, r5, r6, r7, r8, r9, sl, fp}
 8010540:	4770      	bx	lr
 8010542:	f1c6 0520 	rsb	r5, r6, #32
 8010546:	fa22 f405 	lsr.w	r4, r2, r5
 801054a:	40b3      	lsls	r3, r6
 801054c:	431c      	orrs	r4, r3
 801054e:	ea4f 4814 	mov.w	r8, r4, lsr #16
 8010552:	fa21 f305 	lsr.w	r3, r1, r5
 8010556:	fa01 f706 	lsl.w	r7, r1, r6
 801055a:	fa20 f505 	lsr.w	r5, r0, r5
 801055e:	fbb3 fcf8 	udiv	ip, r3, r8
 8010562:	432f      	orrs	r7, r5
 8010564:	fb08 331c 	mls	r3, r8, ip, r3
 8010568:	0c3d      	lsrs	r5, r7, #16
 801056a:	fa1f fa84 	uxth.w	sl, r4
 801056e:	ea45 4303 	orr.w	r3, r5, r3, lsl #16
 8010572:	fb0a f90c 	mul.w	r9, sl, ip
 8010576:	4599      	cmp	r9, r3
 8010578:	fa02 fb06 	lsl.w	fp, r2, r6
 801057c:	d904      	bls.n	8010588 <__udivdi3+0x184>
 801057e:	191b      	adds	r3, r3, r4
 8010580:	f10c 32ff 	add.w	r2, ip, #4294967295
 8010584:	d36d      	bcc.n	8010662 <__udivdi3+0x25e>
 8010586:	4694      	mov	ip, r2
 8010588:	ebc9 0303 	rsb	r3, r9, r3
 801058c:	fbb3 f5f8 	udiv	r5, r3, r8
 8010590:	fb08 3315 	mls	r3, r8, r5, r3
 8010594:	b2bf      	uxth	r7, r7
 8010596:	ea47 4703 	orr.w	r7, r7, r3, lsl #16
 801059a:	fb0a f805 	mul.w	r8, sl, r5
 801059e:	45b8      	cmp	r8, r7
 80105a0:	d904      	bls.n	80105ac <__udivdi3+0x1a8>
 80105a2:	193f      	adds	r7, r7, r4
 80105a4:	f105 33ff 	add.w	r3, r5, #4294967295
 80105a8:	d361      	bcc.n	801066e <__udivdi3+0x26a>
 80105aa:	461d      	mov	r5, r3
 80105ac:	ea45 4c0c 	orr.w	ip, r5, ip, lsl #16
 80105b0:	fbac 230b 	umull	r2, r3, ip, fp
 80105b4:	ebc8 0707 	rsb	r7, r8, r7
 80105b8:	429f      	cmp	r7, r3
 80105ba:	f04f 0500 	mov.w	r5, #0
 80105be:	d349      	bcc.n	8010654 <__udivdi3+0x250>
 80105c0:	d045      	beq.n	801064e <__udivdi3+0x24a>
 80105c2:	4662      	mov	r2, ip
 80105c4:	462b      	mov	r3, r5
 80105c6:	e763      	b.n	8010490 <__udivdi3+0x8c>
 80105c8:	4094      	lsls	r4, r2
 80105ca:	f1c2 0320 	rsb	r3, r2, #32
 80105ce:	fa21 fc03 	lsr.w	ip, r1, r3
 80105d2:	0c26      	lsrs	r6, r4, #16
 80105d4:	fa20 f303 	lsr.w	r3, r0, r3
 80105d8:	fa01 f502 	lsl.w	r5, r1, r2
 80105dc:	fbbc f8f6 	udiv	r8, ip, r6
 80105e0:	ea43 0105 	orr.w	r1, r3, r5
 80105e4:	0c0b      	lsrs	r3, r1, #16
 80105e6:	fb06 cc18 	mls	ip, r6, r8, ip
 80105ea:	b2a7      	uxth	r7, r4
 80105ec:	ea43 4c0c 	orr.w	ip, r3, ip, lsl #16
 80105f0:	fb07 f308 	mul.w	r3, r7, r8
 80105f4:	4563      	cmp	r3, ip
 80105f6:	fa00 f502 	lsl.w	r5, r0, r2
 80105fa:	d909      	bls.n	8010610 <__udivdi3+0x20c>
 80105fc:	eb1c 0c04 	adds.w	ip, ip, r4
 8010600:	f108 32ff 	add.w	r2, r8, #4294967295
 8010604:	d23a      	bcs.n	801067c <__udivdi3+0x278>
 8010606:	4563      	cmp	r3, ip
 8010608:	d938      	bls.n	801067c <__udivdi3+0x278>
 801060a:	f1a8 0802 	sub.w	r8, r8, #2
 801060e:	44a4      	add	ip, r4
 8010610:	ebc3 0c0c 	rsb	ip, r3, ip
 8010614:	fbbc f3f6 	udiv	r3, ip, r6
 8010618:	b289      	uxth	r1, r1
 801061a:	fb06 cc13 	mls	ip, r6, r3, ip
 801061e:	ea41 410c 	orr.w	r1, r1, ip, lsl #16
 8010622:	fb07 f203 	mul.w	r2, r7, r3
 8010626:	428a      	cmp	r2, r1
 8010628:	d907      	bls.n	801063a <__udivdi3+0x236>
 801062a:	1909      	adds	r1, r1, r4
 801062c:	f103 30ff 	add.w	r0, r3, #4294967295
 8010630:	d222      	bcs.n	8010678 <__udivdi3+0x274>
 8010632:	428a      	cmp	r2, r1
 8010634:	d920      	bls.n	8010678 <__udivdi3+0x274>
 8010636:	3b02      	subs	r3, #2
 8010638:	4421      	add	r1, r4
 801063a:	1a89      	subs	r1, r1, r2
 801063c:	ea43 4308 	orr.w	r3, r3, r8, lsl #16
 8010640:	e749      	b.n	80104d6 <__udivdi3+0xd2>
 8010642:	463a      	mov	r2, r7
 8010644:	e70c      	b.n	8010460 <__udivdi3+0x5c>
 8010646:	4633      	mov	r3, r6
 8010648:	e71f      	b.n	801048a <__udivdi3+0x86>
 801064a:	460a      	mov	r2, r1
 801064c:	e76b      	b.n	8010526 <__udivdi3+0x122>
 801064e:	40b0      	lsls	r0, r6
 8010650:	4290      	cmp	r0, r2
 8010652:	d2b6      	bcs.n	80105c2 <__udivdi3+0x1be>
 8010654:	f10c 32ff 	add.w	r2, ip, #4294967295
 8010658:	2300      	movs	r3, #0
 801065a:	e719      	b.n	8010490 <__udivdi3+0x8c>
 801065c:	4633      	mov	r3, r6
 801065e:	4632      	mov	r2, r6
 8010660:	e716      	b.n	8010490 <__udivdi3+0x8c>
 8010662:	4599      	cmp	r9, r3
 8010664:	d98f      	bls.n	8010586 <__udivdi3+0x182>
 8010666:	f1ac 0c02 	sub.w	ip, ip, #2
 801066a:	4423      	add	r3, r4
 801066c:	e78c      	b.n	8010588 <__udivdi3+0x184>
 801066e:	45b8      	cmp	r8, r7
 8010670:	d99b      	bls.n	80105aa <__udivdi3+0x1a6>
 8010672:	3d02      	subs	r5, #2
 8010674:	4427      	add	r7, r4
 8010676:	e799      	b.n	80105ac <__udivdi3+0x1a8>
 8010678:	4603      	mov	r3, r0
 801067a:	e7de      	b.n	801063a <__udivdi3+0x236>
 801067c:	4690      	mov	r8, r2
 801067e:	e7c7      	b.n	8010610 <__udivdi3+0x20c>
 8010680:	3802      	subs	r0, #2
 8010682:	4421      	add	r1, r4
 8010684:	e73a      	b.n	80104fc <__udivdi3+0xf8>
 8010686:	bf00      	nop

08010688 <hal_cache_is_cacheable>:
 8010688:	b510      	push	{r4, lr}
 801068a:	4b11      	ldr	r3, [pc, #68]	; (80106d0 <hal_cache_is_cacheable+0x48>)
 801068c:	681b      	ldr	r3, [r3, #0]
 801068e:	f013 0308 	ands.w	r3, r3, #8
 8010692:	d01a      	beq.n	80106ca <hal_cache_is_cacheable+0x42>
 8010694:	2300      	movs	r3, #0
 8010696:	4a0e      	ldr	r2, [pc, #56]	; (80106d0 <hal_cache_is_cacheable+0x48>)
 8010698:	2101      	movs	r1, #1
 801069a:	6ad2      	ldr	r2, [r2, #44]	; 0x2c
 801069c:	fa01 f403 	lsl.w	r4, r1, r3
 80106a0:	4214      	tst	r4, r2
 80106a2:	d00c      	beq.n	80106be <hal_cache_is_cacheable+0x36>
 80106a4:	009a      	lsls	r2, r3, #2
 80106a6:	f102 4220 	add.w	r2, r2, #2684354560	; 0xa0000000
 80106aa:	f502 0209 	add.w	r2, r2, #8978432	; 0x890000
 80106ae:	6814      	ldr	r4, [r2, #0]
 80106b0:	f424 7480 	bic.w	r4, r4, #256	; 0x100
 80106b4:	42a0      	cmp	r0, r4
 80106b6:	d302      	bcc.n	80106be <hal_cache_is_cacheable+0x36>
 80106b8:	6c12      	ldr	r2, [r2, #64]	; 0x40
 80106ba:	4290      	cmp	r0, r2
 80106bc:	d303      	bcc.n	80106c6 <hal_cache_is_cacheable+0x3e>
 80106be:	3301      	adds	r3, #1
 80106c0:	2b10      	cmp	r3, #16
 80106c2:	d1e8      	bne.n	8010696 <hal_cache_is_cacheable+0xe>
 80106c4:	e001      	b.n	80106ca <hal_cache_is_cacheable+0x42>
 80106c6:	4608      	mov	r0, r1
 80106c8:	bd10      	pop	{r4, pc}
 80106ca:	2000      	movs	r0, #0
 80106cc:	bd10      	pop	{r4, pc}
 80106ce:	bf00      	nop
 80106d0:	a0880000 	addge	r0, r8, r0

080106d4 <pd_domain_dma_interrupt_hander>:
 80106d4:	b573      	push	{r0, r1, r4, r5, r6, lr}
 80106d6:	4b3e      	ldr	r3, [pc, #248]	; (80107d0 <pd_domain_dma_interrupt_hander+0xfc>)
 80106d8:	2000      	movs	r0, #0
 80106da:	681b      	ldr	r3, [r3, #0]
 80106dc:	9001      	str	r0, [sp, #4]
 80106de:	681b      	ldr	r3, [r3, #0]
 80106e0:	9301      	str	r3, [sp, #4]
 80106e2:	9b01      	ldr	r3, [sp, #4]
 80106e4:	079b      	lsls	r3, r3, #30
 80106e6:	d50e      	bpl.n	8010706 <pd_domain_dma_interrupt_hander+0x32>
 80106e8:	4b3a      	ldr	r3, [pc, #232]	; (80107d4 <pd_domain_dma_interrupt_hander+0x100>)
 80106ea:	681b      	ldr	r3, [r3, #0]
 80106ec:	f44f 4200 	mov.w	r2, #32768	; 0x8000
 80106f0:	621a      	str	r2, [r3, #32]
 80106f2:	4a39      	ldr	r2, [pc, #228]	; (80107d8 <pd_domain_dma_interrupt_hander+0x104>)
 80106f4:	6813      	ldr	r3, [r2, #0]
 80106f6:	6851      	ldr	r1, [r2, #4]
 80106f8:	b10b      	cbz	r3, 80106fe <pd_domain_dma_interrupt_hander+0x2a>
 80106fa:	4798      	blx	r3
 80106fc:	e003      	b.n	8010706 <pd_domain_dma_interrupt_hander+0x32>
 80106fe:	4837      	ldr	r0, [pc, #220]	; (80107dc <pd_domain_dma_interrupt_hander+0x108>)
 8010700:	f240 4154 	movw	r1, #1108	; 0x454
 8010704:	e005      	b.n	8010712 <pd_domain_dma_interrupt_hander+0x3e>
 8010706:	4c36      	ldr	r4, [pc, #216]	; (80107e0 <pd_domain_dma_interrupt_hander+0x10c>)
 8010708:	2300      	movs	r3, #0
 801070a:	e016      	b.n	801073a <pd_domain_dma_interrupt_hander+0x66>
 801070c:	4833      	ldr	r0, [pc, #204]	; (80107dc <pd_domain_dma_interrupt_hander+0x108>)
 801070e:	f240 416b 	movw	r1, #1131	; 0x46b
 8010712:	4a34      	ldr	r2, [pc, #208]	; (80107e4 <pd_domain_dma_interrupt_hander+0x110>)
 8010714:	4b34      	ldr	r3, [pc, #208]	; (80107e8 <pd_domain_dma_interrupt_hander+0x114>)
 8010716:	f001 fcc1 	bl	801209c <__assert_func>
 801071a:	4a34      	ldr	r2, [pc, #208]	; (80107ec <pd_domain_dma_interrupt_hander+0x118>)
 801071c:	4934      	ldr	r1, [pc, #208]	; (80107f0 <pd_domain_dma_interrupt_hander+0x11c>)
 801071e:	f852 2023 	ldr.w	r2, [r2, r3, lsl #2]
 8010722:	5cc9      	ldrb	r1, [r1, r3]
 8010724:	6812      	ldr	r2, [r2, #0]
 8010726:	9201      	str	r2, [sp, #4]
 8010728:	9a01      	ldr	r2, [sp, #4]
 801072a:	3101      	adds	r1, #1
 801072c:	2001      	movs	r0, #1
 801072e:	fa00 f101 	lsl.w	r1, r0, r1
 8010732:	4211      	tst	r1, r2
 8010734:	d107      	bne.n	8010746 <pd_domain_dma_interrupt_hander+0x72>
 8010736:	6823      	ldr	r3, [r4, #0]
 8010738:	3301      	adds	r3, #1
 801073a:	6023      	str	r3, [r4, #0]
 801073c:	6823      	ldr	r3, [r4, #0]
 801073e:	4d28      	ldr	r5, [pc, #160]	; (80107e0 <pd_domain_dma_interrupt_hander+0x10c>)
 8010740:	2b05      	cmp	r3, #5
 8010742:	d9ea      	bls.n	801071a <pd_domain_dma_interrupt_hander+0x46>
 8010744:	e017      	b.n	8010776 <pd_domain_dma_interrupt_hander+0xa2>
 8010746:	4e2b      	ldr	r6, [pc, #172]	; (80107f4 <pd_domain_dma_interrupt_hander+0x120>)
 8010748:	f856 2023 	ldr.w	r2, [r6, r3, lsl #2]
 801074c:	f44f 4100 	mov.w	r1, #32768	; 0x8000
 8010750:	6191      	str	r1, [r2, #24]
 8010752:	4929      	ldr	r1, [pc, #164]	; (80107f8 <pd_domain_dma_interrupt_hander+0x124>)
 8010754:	f851 2033 	ldr.w	r2, [r1, r3, lsl #3]
 8010758:	eb01 03c3 	add.w	r3, r1, r3, lsl #3
 801075c:	6859      	ldr	r1, [r3, #4]
 801075e:	2a00      	cmp	r2, #0
 8010760:	d0d4      	beq.n	801070c <pd_domain_dma_interrupt_hander+0x38>
 8010762:	2000      	movs	r0, #0
 8010764:	4790      	blx	r2
 8010766:	682b      	ldr	r3, [r5, #0]
 8010768:	f856 3023 	ldr.w	r3, [r6, r3, lsl #2]
 801076c:	691a      	ldr	r2, [r3, #16]
 801076e:	f422 4200 	bic.w	r2, r2, #32768	; 0x8000
 8010772:	611a      	str	r2, [r3, #16]
 8010774:	e7df      	b.n	8010736 <pd_domain_dma_interrupt_hander+0x62>
 8010776:	2300      	movs	r3, #0
 8010778:	602b      	str	r3, [r5, #0]
 801077a:	6823      	ldr	r3, [r4, #0]
 801077c:	2b07      	cmp	r3, #7
 801077e:	d825      	bhi.n	80107cc <pd_domain_dma_interrupt_hander+0xf8>
 8010780:	4a1e      	ldr	r2, [pc, #120]	; (80107fc <pd_domain_dma_interrupt_hander+0x128>)
 8010782:	491f      	ldr	r1, [pc, #124]	; (8010800 <pd_domain_dma_interrupt_hander+0x12c>)
 8010784:	f852 2023 	ldr.w	r2, [r2, r3, lsl #2]
 8010788:	5cc9      	ldrb	r1, [r1, r3]
 801078a:	6812      	ldr	r2, [r2, #0]
 801078c:	9201      	str	r2, [sp, #4]
 801078e:	9a01      	ldr	r2, [sp, #4]
 8010790:	3101      	adds	r1, #1
 8010792:	2001      	movs	r0, #1
 8010794:	fa00 f101 	lsl.w	r1, r0, r1
 8010798:	4211      	tst	r1, r2
 801079a:	d013      	beq.n	80107c4 <pd_domain_dma_interrupt_hander+0xf0>
 801079c:	4a19      	ldr	r2, [pc, #100]	; (8010804 <pd_domain_dma_interrupt_hander+0x130>)
 801079e:	f852 2023 	ldr.w	r2, [r2, r3, lsl #2]
 80107a2:	f44f 4100 	mov.w	r1, #32768	; 0x8000
 80107a6:	6111      	str	r1, [r2, #16]
 80107a8:	4917      	ldr	r1, [pc, #92]	; (8010808 <pd_domain_dma_interrupt_hander+0x134>)
 80107aa:	f851 2033 	ldr.w	r2, [r1, r3, lsl #3]
 80107ae:	eb01 03c3 	add.w	r3, r1, r3, lsl #3
 80107b2:	6859      	ldr	r1, [r3, #4]
 80107b4:	b112      	cbz	r2, 80107bc <pd_domain_dma_interrupt_hander+0xe8>
 80107b6:	2000      	movs	r0, #0
 80107b8:	4790      	blx	r2
 80107ba:	e003      	b.n	80107c4 <pd_domain_dma_interrupt_hander+0xf0>
 80107bc:	4807      	ldr	r0, [pc, #28]	; (80107dc <pd_domain_dma_interrupt_hander+0x108>)
 80107be:	f240 4183 	movw	r1, #1155	; 0x483
 80107c2:	e7a6      	b.n	8010712 <pd_domain_dma_interrupt_hander+0x3e>
 80107c4:	6823      	ldr	r3, [r4, #0]
 80107c6:	3301      	adds	r3, #1
 80107c8:	6023      	str	r3, [r4, #0]
 80107ca:	e7d6      	b.n	801077a <pd_domain_dma_interrupt_hander+0xa6>
 80107cc:	b002      	add	sp, #8
 80107ce:	bd70      	pop	{r4, r5, r6, pc}
 80107d0:	1000171c 	andne	r1, r0, ip, lsl r7
 80107d4:	100016f0 	strdne	r1, [r0], -r0
 80107d8:	100017e8 	andne	r1, r0, r8, ror #15
 80107dc:	0801303f 	stmdaeq	r1, {r0, r1, r2, r3, r4, r5, ip, sp}
 80107e0:	10001840 	andne	r1, r0, r0, asr #16
 80107e4:	08012ff2 	stmdaeq	r1, {r1, r4, r5, r6, r7, r8, r9, sl, fp, sp}
 80107e8:	08013079 	stmdaeq	r1, {r0, r3, r4, r5, r6, ip, sp}
 80107ec:	100016b0 			; <UNDEFINED> instruction: 0x100016b0
 80107f0:	100016ea 	andne	r1, r0, sl, ror #13
 80107f4:	100016c8 	andne	r1, r0, r8, asr #13
 80107f8:	10001844 	andne	r1, r0, r4, asr #16
 80107fc:	10001660 	andne	r1, r0, r0, ror #12
 8010800:	100016e0 	andne	r1, r0, r0, ror #13
 8010804:	100016f4 	strdne	r1, [r0], -r4
 8010808:	100017f0 	strdne	r1, [r0], -r0

0801080c <ao_domain_dma_interrupt_hander>:
 801080c:	b513      	push	{r0, r1, r4, lr}
 801080e:	2300      	movs	r3, #0
 8010810:	9301      	str	r3, [sp, #4]
 8010812:	2408      	movs	r4, #8
 8010814:	4b14      	ldr	r3, [pc, #80]	; (8010868 <ao_domain_dma_interrupt_hander+0x5c>)
 8010816:	4a15      	ldr	r2, [pc, #84]	; (801086c <ao_domain_dma_interrupt_hander+0x60>)
 8010818:	f853 3024 	ldr.w	r3, [r3, r4, lsl #2]
 801081c:	5ca2      	ldrb	r2, [r4, r2]
 801081e:	681b      	ldr	r3, [r3, #0]
 8010820:	9301      	str	r3, [sp, #4]
 8010822:	9b01      	ldr	r3, [sp, #4]
 8010824:	3201      	adds	r2, #1
 8010826:	2101      	movs	r1, #1
 8010828:	fa01 f202 	lsl.w	r2, r1, r2
 801082c:	421a      	tst	r2, r3
 801082e:	d016      	beq.n	801085e <ao_domain_dma_interrupt_hander+0x52>
 8010830:	4b0f      	ldr	r3, [pc, #60]	; (8010870 <ao_domain_dma_interrupt_hander+0x64>)
 8010832:	f853 3024 	ldr.w	r3, [r3, r4, lsl #2]
 8010836:	f44f 4200 	mov.w	r2, #32768	; 0x8000
 801083a:	611a      	str	r2, [r3, #16]
 801083c:	4a0d      	ldr	r2, [pc, #52]	; (8010874 <ao_domain_dma_interrupt_hander+0x68>)
 801083e:	f852 3034 	ldr.w	r3, [r2, r4, lsl #3]
 8010842:	eb02 02c4 	add.w	r2, r2, r4, lsl #3
 8010846:	6851      	ldr	r1, [r2, #4]
 8010848:	b113      	cbz	r3, 8010850 <ao_domain_dma_interrupt_hander+0x44>
 801084a:	2000      	movs	r0, #0
 801084c:	4798      	blx	r3
 801084e:	e006      	b.n	801085e <ao_domain_dma_interrupt_hander+0x52>
 8010850:	4809      	ldr	r0, [pc, #36]	; (8010878 <ao_domain_dma_interrupt_hander+0x6c>)
 8010852:	4a0a      	ldr	r2, [pc, #40]	; (801087c <ao_domain_dma_interrupt_hander+0x70>)
 8010854:	4b0a      	ldr	r3, [pc, #40]	; (8010880 <ao_domain_dma_interrupt_hander+0x74>)
 8010856:	f240 41b4 	movw	r1, #1204	; 0x4b4
 801085a:	f001 fc1f 	bl	801209c <__assert_func>
 801085e:	3401      	adds	r4, #1
 8010860:	2c0a      	cmp	r4, #10
 8010862:	d1d7      	bne.n	8010814 <ao_domain_dma_interrupt_hander+0x8>
 8010864:	b002      	add	sp, #8
 8010866:	bd10      	pop	{r4, pc}
 8010868:	10001660 	andne	r1, r0, r0, ror #12
 801086c:	100016e0 	andne	r1, r0, r0, ror #13
 8010870:	100016f4 	strdne	r1, [r0], -r4
 8010874:	100017f0 	strdne	r1, [r0], -r0
 8010878:	0801303f 	stmdaeq	r1, {r0, r1, r2, r3, r4, r5, ip, sp}
 801087c:	08013020 	stmdaeq	r1, {r5, ip, sp}
 8010880:	08013079 	stmdaeq	r1, {r0, r3, r4, r5, r6, ip, sp}

08010884 <dma_enable_clock.part.1>:
 8010884:	b510      	push	{r4, lr}
 8010886:	2021      	movs	r0, #33	; 0x21
 8010888:	f002 fb6a 	bl	8012f60 <__hal_clock_enable_veneer>
 801088c:	2800      	cmp	r0, #0
 801088e:	f04f 0088 	mov.w	r0, #136	; 0x88
 8010892:	bf0c      	ite	eq
 8010894:	2400      	moveq	r4, #0
 8010896:	24ff      	movne	r4, #255	; 0xff
 8010898:	f002 fb62 	bl	8012f60 <__hal_clock_enable_veneer>
 801089c:	2800      	cmp	r0, #0
 801089e:	bf14      	ite	ne
 80108a0:	4620      	movne	r0, r4
 80108a2:	2000      	moveq	r0, #0
 80108a4:	bd10      	pop	{r4, pc}

080108a6 <dma_enable_clock>:
 80108a6:	b508      	push	{r3, lr}
 80108a8:	b918      	cbnz	r0, 80108b2 <dma_enable_clock+0xc>
 80108aa:	e8bd 4008 	ldmia.w	sp!, {r3, lr}
 80108ae:	f7ff bfe9 	b.w	8010884 <dma_enable_clock.part.1>
 80108b2:	202c      	movs	r0, #44	; 0x2c
 80108b4:	f002 fb54 	bl	8012f60 <__hal_clock_enable_veneer>
 80108b8:	2800      	cmp	r0, #0
 80108ba:	bf14      	ite	ne
 80108bc:	20ff      	movne	r0, #255	; 0xff
 80108be:	2000      	moveq	r0, #0
 80108c0:	bd08      	pop	{r3, pc}
	...

080108c4 <vdma_init>:
 80108c4:	b570      	push	{r4, r5, r6, lr}
 80108c6:	f1a0 0408 	sub.w	r4, r0, #8
 80108ca:	2c09      	cmp	r4, #9
 80108cc:	4605      	mov	r5, r0
 80108ce:	d915      	bls.n	80108fc <vdma_init+0x38>
 80108d0:	20fe      	movs	r0, #254	; 0xfe
 80108d2:	e011      	b.n	80108f8 <vdma_init+0x34>
 80108d4:	682b      	ldr	r3, [r5, #0]
 80108d6:	2210      	movs	r2, #16
 80108d8:	605a      	str	r2, [r3, #4]
 80108da:	493b      	ldr	r1, [pc, #236]	; (80109c8 <vdma_init+0x104>)
 80108dc:	2015      	movs	r0, #21
 80108de:	f000 fec7 	bl	8011670 <hal_nvic_register_isr_handler>
 80108e2:	2015      	movs	r0, #21
 80108e4:	f000 feb0 	bl	8011648 <hal_nvic_enable_irq>
 80108e8:	4938      	ldr	r1, [pc, #224]	; (80109cc <vdma_init+0x108>)
 80108ea:	2016      	movs	r0, #22
 80108ec:	f000 fec0 	bl	8011670 <hal_nvic_register_isr_handler>
 80108f0:	2016      	movs	r0, #22
 80108f2:	f000 fea9 	bl	8011648 <hal_nvic_enable_irq>
 80108f6:	2000      	movs	r0, #0
 80108f8:	b240      	sxtb	r0, r0
 80108fa:	bd70      	pop	{r4, r5, r6, pc}
 80108fc:	f002 fb18 	bl	8012f30 <__save_and_set_interrupt_mask_veneer>
 8010900:	4b33      	ldr	r3, [pc, #204]	; (80109d0 <vdma_init+0x10c>)
 8010902:	5d5a      	ldrb	r2, [r3, r5]
 8010904:	2a01      	cmp	r2, #1
 8010906:	d10d      	bne.n	8010924 <vdma_init+0x60>
 8010908:	4832      	ldr	r0, [pc, #200]	; (80109d4 <vdma_init+0x110>)
 801090a:	4a33      	ldr	r2, [pc, #204]	; (80109d8 <vdma_init+0x114>)
 801090c:	f44f 7125 	mov.w	r1, #660	; 0x294
 8010910:	462b      	mov	r3, r5
 8010912:	f001 fa61 	bl	8011dd8 <log_hal_info_internal>
 8010916:	4831      	ldr	r0, [pc, #196]	; (80109dc <vdma_init+0x118>)
 8010918:	4a31      	ldr	r2, [pc, #196]	; (80109e0 <vdma_init+0x11c>)
 801091a:	4b32      	ldr	r3, [pc, #200]	; (80109e4 <vdma_init+0x120>)
 801091c:	f44f 7125 	mov.w	r1, #660	; 0x294
 8010920:	f001 fbbc 	bl	801209c <__assert_func>
 8010924:	2601      	movs	r6, #1
 8010926:	555e      	strb	r6, [r3, r5]
 8010928:	4d2f      	ldr	r5, [pc, #188]	; (80109e8 <vdma_init+0x124>)
 801092a:	f002 fb09 	bl	8012f40 <__restore_interrupt_mask_veneer>
 801092e:	f855 2024 	ldr.w	r2, [r5, r4, lsl #2]
 8010932:	2300      	movs	r3, #0
 8010934:	6053      	str	r3, [r2, #4]
 8010936:	f855 2024 	ldr.w	r2, [r5, r4, lsl #2]
 801093a:	6013      	str	r3, [r2, #0]
 801093c:	f855 2024 	ldr.w	r2, [r5, r4, lsl #2]
 8010940:	6093      	str	r3, [r2, #8]
 8010942:	f855 2024 	ldr.w	r2, [r5, r4, lsl #2]
 8010946:	60d3      	str	r3, [r2, #12]
 8010948:	f855 2024 	ldr.w	r2, [r5, r4, lsl #2]
 801094c:	61d3      	str	r3, [r2, #28]
 801094e:	f855 2024 	ldr.w	r2, [r5, r4, lsl #2]
 8010952:	2c07      	cmp	r4, #7
 8010954:	6313      	str	r3, [r2, #48]	; 0x30
 8010956:	6353      	str	r3, [r2, #52]	; 0x34
 8010958:	d81c      	bhi.n	8010994 <vdma_init+0xd0>
 801095a:	f7ff ff93 	bl	8010884 <dma_enable_clock.part.1>
 801095e:	28ff      	cmp	r0, #255	; 0xff
 8010960:	d02f      	beq.n	80109c2 <vdma_init+0xfe>
 8010962:	2c09      	cmp	r4, #9
 8010964:	d82d      	bhi.n	80109c2 <vdma_init+0xfe>
 8010966:	a301      	add	r3, pc, #4	; (adr r3, 801096c <vdma_init+0xa8>)
 8010968:	f853 f024 	ldr.w	pc, [r3, r4, lsl #2]
 801096c:	080108d5 	stmdaeq	r1, {r0, r2, r4, r6, r7, fp}
 8010970:	0801099d 	stmdaeq	r1, {r0, r2, r3, r4, r7, r8, fp}
 8010974:	080109a1 	stmdaeq	r1, {r0, r5, r7, r8, fp}
 8010978:	080109a5 	stmdaeq	r1, {r0, r2, r5, r7, r8, fp}
 801097c:	080109a9 	stmdaeq	r1, {r0, r3, r5, r7, r8, fp}
 8010980:	080109ad 	stmdaeq	r1, {r0, r2, r3, r5, r7, r8, fp}
 8010984:	080109b1 	stmdaeq	r1, {r0, r4, r5, r7, r8, fp}
 8010988:	080109b5 	stmdaeq	r1, {r0, r2, r4, r5, r7, r8, fp}
 801098c:	080109b9 	stmdaeq	r1, {r0, r3, r4, r5, r7, r8, fp}
 8010990:	080109bd 	stmdaeq	r1, {r0, r2, r3, r4, r5, r7, r8, fp}
 8010994:	4630      	mov	r0, r6
 8010996:	f7ff ff86 	bl	80108a6 <dma_enable_clock>
 801099a:	e7e0      	b.n	801095e <vdma_init+0x9a>
 801099c:	686b      	ldr	r3, [r5, #4]
 801099e:	e00e      	b.n	80109be <vdma_init+0xfa>
 80109a0:	68ab      	ldr	r3, [r5, #8]
 80109a2:	e798      	b.n	80108d6 <vdma_init+0x12>
 80109a4:	68eb      	ldr	r3, [r5, #12]
 80109a6:	e00a      	b.n	80109be <vdma_init+0xfa>
 80109a8:	692b      	ldr	r3, [r5, #16]
 80109aa:	e794      	b.n	80108d6 <vdma_init+0x12>
 80109ac:	696b      	ldr	r3, [r5, #20]
 80109ae:	e006      	b.n	80109be <vdma_init+0xfa>
 80109b0:	69ab      	ldr	r3, [r5, #24]
 80109b2:	e790      	b.n	80108d6 <vdma_init+0x12>
 80109b4:	69eb      	ldr	r3, [r5, #28]
 80109b6:	e002      	b.n	80109be <vdma_init+0xfa>
 80109b8:	6a2b      	ldr	r3, [r5, #32]
 80109ba:	e78c      	b.n	80108d6 <vdma_init+0x12>
 80109bc:	6a6b      	ldr	r3, [r5, #36]	; 0x24
 80109be:	4a0b      	ldr	r2, [pc, #44]	; (80109ec <vdma_init+0x128>)
 80109c0:	e78a      	b.n	80108d8 <vdma_init+0x14>
 80109c2:	20fd      	movs	r0, #253	; 0xfd
 80109c4:	e798      	b.n	80108f8 <vdma_init+0x34>
 80109c6:	bf00      	nop
 80109c8:	080106d5 	stmdaeq	r1, {r0, r2, r4, r6, r7, r9, sl}
 80109cc:	0801080d 	stmdaeq	r1, {r0, r2, r3, fp}
 80109d0:	100017d4 	ldrdne	r1, [r0], -r4
 80109d4:	08013145 	stmdaeq	r1, {r0, r2, r6, r8, ip, sp}
 80109d8:	080130e5 	stmdaeq	r1, {r0, r2, r5, r6, r7, ip, sp}
 80109dc:	0801303f 	stmdaeq	r1, {r0, r1, r2, r3, r4, r5, ip, sp}
 80109e0:	08012fe8 	stmdaeq	r1, {r3, r5, r6, r7, r8, r9, sl, fp, sp}
 80109e4:	08013079 	stmdaeq	r1, {r0, r3, r4, r5, r6, ip, sp}
 80109e8:	100016f4 	strdne	r1, [r0], -r4
 80109ec:	00040010 	andeq	r0, r4, r0, lsl r0

080109f0 <vdma_configure>:
 80109f0:	b538      	push	{r3, r4, r5, lr}
 80109f2:	f1a0 0508 	sub.w	r5, r0, #8
 80109f6:	2d09      	cmp	r5, #9
 80109f8:	460c      	mov	r4, r1
 80109fa:	d902      	bls.n	8010a02 <vdma_configure+0x12>
 80109fc:	20fe      	movs	r0, #254	; 0xfe
 80109fe:	b240      	sxtb	r0, r0
 8010a00:	bd38      	pop	{r3, r4, r5, pc}
 8010a02:	6808      	ldr	r0, [r1, #0]
 8010a04:	0783      	lsls	r3, r0, #30
 8010a06:	d003      	beq.n	8010a10 <vdma_configure+0x20>
 8010a08:	480a      	ldr	r0, [pc, #40]	; (8010a34 <vdma_configure+0x44>)
 8010a0a:	f240 313b 	movw	r1, #827	; 0x33b
 8010a0e:	e005      	b.n	8010a1c <vdma_configure+0x2c>
 8010a10:	f7ff fe3a 	bl	8010688 <hal_cache_is_cacheable>
 8010a14:	b130      	cbz	r0, 8010a24 <vdma_configure+0x34>
 8010a16:	4807      	ldr	r0, [pc, #28]	; (8010a34 <vdma_configure+0x44>)
 8010a18:	f240 3141 	movw	r1, #833	; 0x341
 8010a1c:	4a06      	ldr	r2, [pc, #24]	; (8010a38 <vdma_configure+0x48>)
 8010a1e:	4b07      	ldr	r3, [pc, #28]	; (8010a3c <vdma_configure+0x4c>)
 8010a20:	f001 fb3c 	bl	801209c <__assert_func>
 8010a24:	4b06      	ldr	r3, [pc, #24]	; (8010a40 <vdma_configure+0x50>)
 8010a26:	6862      	ldr	r2, [r4, #4]
 8010a28:	f853 3025 	ldr.w	r3, [r3, r5, lsl #2]
 8010a2c:	635a      	str	r2, [r3, #52]	; 0x34
 8010a2e:	6822      	ldr	r2, [r4, #0]
 8010a30:	61da      	str	r2, [r3, #28]
 8010a32:	e7e4      	b.n	80109fe <vdma_configure+0xe>
 8010a34:	0801303f 	stmdaeq	r1, {r0, r1, r2, r3, r4, r5, ip, sp}
 8010a38:	08013011 	stmdaeq	r1, {r0, r4, ip, sp}
 8010a3c:	08013079 	stmdaeq	r1, {r0, r3, r4, r5, r6, ip, sp}
 8010a40:	100016f4 	strdne	r1, [r0], -r4

08010a44 <vdma_enable_interrupt>:
 8010a44:	3808      	subs	r0, #8
 8010a46:	2809      	cmp	r0, #9
 8010a48:	d902      	bls.n	8010a50 <vdma_enable_interrupt+0xc>
 8010a4a:	20fe      	movs	r0, #254	; 0xfe
 8010a4c:	b240      	sxtb	r0, r0
 8010a4e:	4770      	bx	lr
 8010a50:	4b04      	ldr	r3, [pc, #16]	; (8010a64 <vdma_enable_interrupt+0x20>)
 8010a52:	f853 3020 	ldr.w	r3, [r3, r0, lsl #2]
 8010a56:	685a      	ldr	r2, [r3, #4]
 8010a58:	f442 4200 	orr.w	r2, r2, #32768	; 0x8000
 8010a5c:	605a      	str	r2, [r3, #4]
 8010a5e:	2000      	movs	r0, #0
 8010a60:	e7f4      	b.n	8010a4c <vdma_enable_interrupt+0x8>
 8010a62:	bf00      	nop
 8010a64:	100016f4 	strdne	r1, [r0], -r4

08010a68 <vdma_start>:
 8010a68:	b537      	push	{r0, r1, r2, r4, r5, lr}
 8010a6a:	f1a0 0408 	sub.w	r4, r0, #8
 8010a6e:	2300      	movs	r3, #0
 8010a70:	2c09      	cmp	r4, #9
 8010a72:	9301      	str	r3, [sp, #4]
 8010a74:	d903      	bls.n	8010a7e <vdma_start+0x16>
 8010a76:	20fe      	movs	r0, #254	; 0xfe
 8010a78:	b240      	sxtb	r0, r0
 8010a7a:	b003      	add	sp, #12
 8010a7c:	bd30      	pop	{r4, r5, pc}
 8010a7e:	f002 fa57 	bl	8012f30 <__save_and_set_interrupt_mask_veneer>
 8010a82:	4b10      	ldr	r3, [pc, #64]	; (8010ac4 <vdma_start+0x5c>)
 8010a84:	f853 3024 	ldr.w	r3, [r3, r4, lsl #2]
 8010a88:	681b      	ldr	r3, [r3, #0]
 8010a8a:	9301      	str	r3, [sp, #4]
 8010a8c:	4b0e      	ldr	r3, [pc, #56]	; (8010ac8 <vdma_start+0x60>)
 8010a8e:	9901      	ldr	r1, [sp, #4]
 8010a90:	5d1b      	ldrb	r3, [r3, r4]
 8010a92:	2201      	movs	r2, #1
 8010a94:	fa02 f503 	lsl.w	r5, r2, r3
 8010a98:	420d      	tst	r5, r1
 8010a9a:	d105      	bne.n	8010aa8 <vdma_start+0x40>
 8010a9c:	9901      	ldr	r1, [sp, #4]
 8010a9e:	3301      	adds	r3, #1
 8010aa0:	409a      	lsls	r2, r3
 8010aa2:	ea12 0501 	ands.w	r5, r2, r1
 8010aa6:	d003      	beq.n	8010ab0 <vdma_start+0x48>
 8010aa8:	f002 fa4a 	bl	8012f40 <__restore_interrupt_mask_veneer>
 8010aac:	20fd      	movs	r0, #253	; 0xfd
 8010aae:	e7e3      	b.n	8010a78 <vdma_start+0x10>
 8010ab0:	f002 fa46 	bl	8012f40 <__restore_interrupt_mask_veneer>
 8010ab4:	4b05      	ldr	r3, [pc, #20]	; (8010acc <vdma_start+0x64>)
 8010ab6:	f853 3024 	ldr.w	r3, [r3, r4, lsl #2]
 8010aba:	f44f 4200 	mov.w	r2, #32768	; 0x8000
 8010abe:	609a      	str	r2, [r3, #8]
 8010ac0:	4628      	mov	r0, r5
 8010ac2:	e7d9      	b.n	8010a78 <vdma_start+0x10>
 8010ac4:	10001660 	andne	r1, r0, r0, ror #12
 8010ac8:	100016e0 	andne	r1, r0, r0, ror #13
 8010acc:	100016f4 	strdne	r1, [r0], -r4

08010ad0 <vdma_disable_interrupt>:
 8010ad0:	3808      	subs	r0, #8
 8010ad2:	2809      	cmp	r0, #9
 8010ad4:	d902      	bls.n	8010adc <vdma_disable_interrupt+0xc>
 8010ad6:	20fe      	movs	r0, #254	; 0xfe
 8010ad8:	b240      	sxtb	r0, r0
 8010ada:	4770      	bx	lr
 8010adc:	4b04      	ldr	r3, [pc, #16]	; (8010af0 <vdma_disable_interrupt+0x20>)
 8010ade:	f853 3020 	ldr.w	r3, [r3, r0, lsl #2]
 8010ae2:	685a      	ldr	r2, [r3, #4]
 8010ae4:	f422 4200 	bic.w	r2, r2, #32768	; 0x8000
 8010ae8:	605a      	str	r2, [r3, #4]
 8010aea:	2000      	movs	r0, #0
 8010aec:	e7f4      	b.n	8010ad8 <vdma_disable_interrupt+0x8>
 8010aee:	bf00      	nop
 8010af0:	100016f4 	strdne	r1, [r0], -r4

08010af4 <vdma_set_threshold>:
 8010af4:	3808      	subs	r0, #8
 8010af6:	2809      	cmp	r0, #9
 8010af8:	d901      	bls.n	8010afe <vdma_set_threshold+0xa>
 8010afa:	20fe      	movs	r0, #254	; 0xfe
 8010afc:	e007      	b.n	8010b0e <vdma_set_threshold+0x1a>
 8010afe:	f5b1 3f80 	cmp.w	r1, #65536	; 0x10000
 8010b02:	d206      	bcs.n	8010b12 <vdma_set_threshold+0x1e>
 8010b04:	4b04      	ldr	r3, [pc, #16]	; (8010b18 <vdma_set_threshold+0x24>)
 8010b06:	f853 3020 	ldr.w	r3, [r3, r0, lsl #2]
 8010b0a:	2000      	movs	r0, #0
 8010b0c:	6019      	str	r1, [r3, #0]
 8010b0e:	b240      	sxtb	r0, r0
 8010b10:	4770      	bx	lr
 8010b12:	20ff      	movs	r0, #255	; 0xff
 8010b14:	e7fb      	b.n	8010b0e <vdma_set_threshold+0x1a>
 8010b16:	bf00      	nop
 8010b18:	100016f4 	strdne	r1, [r0], -r4

08010b1c <vdma_set_alert_length>:
 8010b1c:	3808      	subs	r0, #8
 8010b1e:	2809      	cmp	r0, #9
 8010b20:	d901      	bls.n	8010b26 <vdma_set_alert_length+0xa>
 8010b22:	20fe      	movs	r0, #254	; 0xfe
 8010b24:	e006      	b.n	8010b34 <vdma_set_alert_length+0x18>
 8010b26:	293f      	cmp	r1, #63	; 0x3f
 8010b28:	d806      	bhi.n	8010b38 <vdma_set_alert_length+0x1c>
 8010b2a:	4b04      	ldr	r3, [pc, #16]	; (8010b3c <vdma_set_alert_length+0x20>)
 8010b2c:	f853 3020 	ldr.w	r3, [r3, r0, lsl #2]
 8010b30:	2000      	movs	r0, #0
 8010b32:	6319      	str	r1, [r3, #48]	; 0x30
 8010b34:	b240      	sxtb	r0, r0
 8010b36:	4770      	bx	lr
 8010b38:	20ff      	movs	r0, #255	; 0xff
 8010b3a:	e7fb      	b.n	8010b34 <vdma_set_alert_length+0x18>
 8010b3c:	100016f4 	strdne	r1, [r0], -r4

08010b40 <vdma_push_data>:
 8010b40:	3808      	subs	r0, #8
 8010b42:	2809      	cmp	r0, #9
 8010b44:	d902      	bls.n	8010b4c <vdma_push_data+0xc>
 8010b46:	20fe      	movs	r0, #254	; 0xfe
 8010b48:	b240      	sxtb	r0, r0
 8010b4a:	4770      	bx	lr
 8010b4c:	4b02      	ldr	r3, [pc, #8]	; (8010b58 <vdma_push_data+0x18>)
 8010b4e:	f853 3020 	ldr.w	r3, [r3, r0, lsl #2]
 8010b52:	2000      	movs	r0, #0
 8010b54:	6019      	str	r1, [r3, #0]
 8010b56:	e7f7      	b.n	8010b48 <vdma_push_data+0x8>
 8010b58:	10001688 	andne	r1, r0, r8, lsl #13

08010b5c <vdma_pop_data>:
 8010b5c:	3808      	subs	r0, #8
 8010b5e:	2809      	cmp	r0, #9
 8010b60:	d902      	bls.n	8010b68 <vdma_pop_data+0xc>
 8010b62:	20fe      	movs	r0, #254	; 0xfe
 8010b64:	b240      	sxtb	r0, r0
 8010b66:	4770      	bx	lr
 8010b68:	4b03      	ldr	r3, [pc, #12]	; (8010b78 <vdma_pop_data+0x1c>)
 8010b6a:	f853 3020 	ldr.w	r3, [r3, r0, lsl #2]
 8010b6e:	681b      	ldr	r3, [r3, #0]
 8010b70:	700b      	strb	r3, [r1, #0]
 8010b72:	2000      	movs	r0, #0
 8010b74:	e7f6      	b.n	8010b64 <vdma_pop_data+0x8>
 8010b76:	bf00      	nop
 8010b78:	10001688 	andne	r1, r0, r8, lsl #13

08010b7c <vdma_get_available_receive_bytes>:
 8010b7c:	3808      	subs	r0, #8
 8010b7e:	2809      	cmp	r0, #9
 8010b80:	d902      	bls.n	8010b88 <vdma_get_available_receive_bytes+0xc>
 8010b82:	20fe      	movs	r0, #254	; 0xfe
 8010b84:	b240      	sxtb	r0, r0
 8010b86:	4770      	bx	lr
 8010b88:	4b03      	ldr	r3, [pc, #12]	; (8010b98 <vdma_get_available_receive_bytes+0x1c>)
 8010b8a:	f853 3020 	ldr.w	r3, [r3, r0, lsl #2]
 8010b8e:	6a9b      	ldr	r3, [r3, #40]	; 0x28
 8010b90:	600b      	str	r3, [r1, #0]
 8010b92:	2000      	movs	r0, #0
 8010b94:	e7f6      	b.n	8010b84 <vdma_get_available_receive_bytes+0x8>
 8010b96:	bf00      	nop
 8010b98:	100016f4 	strdne	r1, [r0], -r4

08010b9c <vdma_get_available_send_space>:
 8010b9c:	3808      	subs	r0, #8
 8010b9e:	2809      	cmp	r0, #9
 8010ba0:	d902      	bls.n	8010ba8 <vdma_get_available_send_space+0xc>
 8010ba2:	20fe      	movs	r0, #254	; 0xfe
 8010ba4:	b240      	sxtb	r0, r0
 8010ba6:	4770      	bx	lr
 8010ba8:	4b04      	ldr	r3, [pc, #16]	; (8010bbc <vdma_get_available_send_space+0x20>)
 8010baa:	f853 3020 	ldr.w	r3, [r3, r0, lsl #2]
 8010bae:	6b5a      	ldr	r2, [r3, #52]	; 0x34
 8010bb0:	6a9b      	ldr	r3, [r3, #40]	; 0x28
 8010bb2:	1ad3      	subs	r3, r2, r3
 8010bb4:	600b      	str	r3, [r1, #0]
 8010bb6:	2000      	movs	r0, #0
 8010bb8:	e7f4      	b.n	8010ba4 <vdma_get_available_send_space+0x8>
 8010bba:	bf00      	nop
 8010bbc:	100016f4 	strdne	r1, [r0], -r4

08010bc0 <vdma_register_callback>:
 8010bc0:	3808      	subs	r0, #8
 8010bc2:	2809      	cmp	r0, #9
 8010bc4:	b510      	push	{r4, lr}
 8010bc6:	d902      	bls.n	8010bce <vdma_register_callback+0xe>
 8010bc8:	20fe      	movs	r0, #254	; 0xfe
 8010bca:	b240      	sxtb	r0, r0
 8010bcc:	bd10      	pop	{r4, pc}
 8010bce:	4b05      	ldr	r3, [pc, #20]	; (8010be4 <vdma_register_callback+0x24>)
 8010bd0:	f853 4030 	ldr.w	r4, [r3, r0, lsl #3]
 8010bd4:	b924      	cbnz	r4, 8010be0 <vdma_register_callback+0x20>
 8010bd6:	f843 1030 	str.w	r1, [r3, r0, lsl #3]
 8010bda:	eb03 00c0 	add.w	r0, r3, r0, lsl #3
 8010bde:	6042      	str	r2, [r0, #4]
 8010be0:	2000      	movs	r0, #0
 8010be2:	e7f2      	b.n	8010bca <vdma_register_callback+0xa>
 8010be4:	100017f0 	strdne	r1, [r0], -r0

08010be8 <hal_gpio_init>:
 8010be8:	2000      	movs	r0, #0
 8010bea:	4770      	bx	lr

08010bec <hal_pinmux_set_function>:
 8010bec:	2830      	cmp	r0, #48	; 0x30
 8010bee:	b570      	push	{r4, r5, r6, lr}
 8010bf0:	4604      	mov	r4, r0
 8010bf2:	460e      	mov	r6, r1
 8010bf4:	d819      	bhi.n	8010c2a <hal_pinmux_set_function+0x3e>
 8010bf6:	290f      	cmp	r1, #15
 8010bf8:	d819      	bhi.n	8010c2e <hal_pinmux_set_function+0x42>
 8010bfa:	08c5      	lsrs	r5, r0, #3
 8010bfc:	f002 f998 	bl	8012f30 <__save_and_set_interrupt_mask_veneer>
 8010c00:	4b0c      	ldr	r3, [pc, #48]	; (8010c34 <hal_pinmux_set_function+0x48>)
 8010c02:	681b      	ldr	r3, [r3, #0]
 8010c04:	f004 0407 	and.w	r4, r4, #7
 8010c08:	eb03 1205 	add.w	r2, r3, r5, lsl #4
 8010c0c:	35c0      	adds	r5, #192	; 0xc0
 8010c0e:	00a4      	lsls	r4, r4, #2
 8010c10:	eb03 1305 	add.w	r3, r3, r5, lsl #4
 8010c14:	210f      	movs	r1, #15
 8010c16:	40a1      	lsls	r1, r4
 8010c18:	fa06 f404 	lsl.w	r4, r6, r4
 8010c1c:	f8c2 1c08 	str.w	r1, [r2, #3080]	; 0xc08
 8010c20:	605c      	str	r4, [r3, #4]
 8010c22:	f002 f98d 	bl	8012f40 <__restore_interrupt_mask_veneer>
 8010c26:	2000      	movs	r0, #0
 8010c28:	e002      	b.n	8010c30 <hal_pinmux_set_function+0x44>
 8010c2a:	20fe      	movs	r0, #254	; 0xfe
 8010c2c:	e000      	b.n	8010c30 <hal_pinmux_set_function+0x44>
 8010c2e:	20ff      	movs	r0, #255	; 0xff
 8010c30:	b240      	sxtb	r0, r0
 8010c32:	bd70      	pop	{r4, r5, r6, pc}
 8010c34:	10001720 	andne	r1, r0, r0, lsr #14

08010c38 <uart_receive_handler>:
 8010c38:	b5f7      	push	{r0, r1, r2, r4, r5, r6, r7, lr}
 8010c3a:	4b26      	ldr	r3, [pc, #152]	; (8010cd4 <uart_receive_handler+0x9c>)
 8010c3c:	5c1b      	ldrb	r3, [r3, r0]
 8010c3e:	2b02      	cmp	r3, #2
 8010c40:	4605      	mov	r5, r0
 8010c42:	460f      	mov	r7, r1
 8010c44:	d002      	beq.n	8010c4c <uart_receive_handler+0x14>
 8010c46:	4824      	ldr	r0, [pc, #144]	; (8010cd8 <uart_receive_handler+0xa0>)
 8010c48:	217d      	movs	r1, #125	; 0x7d
 8010c4a:	e011      	b.n	8010c70 <uart_receive_handler+0x38>
 8010c4c:	4b23      	ldr	r3, [pc, #140]	; (8010cdc <uart_receive_handler+0xa4>)
 8010c4e:	2101      	movs	r1, #1
 8010c50:	f853 6020 	ldr.w	r6, [r3, r0, lsl #2]
 8010c54:	f000 fc64 	bl	8011520 <uart_port_to_dma_channel>
 8010c58:	4604      	mov	r4, r0
 8010c5a:	b117      	cbz	r7, 8010c62 <uart_receive_handler+0x2a>
 8010c5c:	4630      	mov	r0, r6
 8010c5e:	f000 fc3b 	bl	80114d8 <uart_clear_timeout_interrupt>
 8010c62:	4620      	mov	r0, r4
 8010c64:	a901      	add	r1, sp, #4
 8010c66:	f7ff ff89 	bl	8010b7c <vdma_get_available_receive_bytes>
 8010c6a:	b128      	cbz	r0, 8010c78 <uart_receive_handler+0x40>
 8010c6c:	481a      	ldr	r0, [pc, #104]	; (8010cd8 <uart_receive_handler+0xa0>)
 8010c6e:	218a      	movs	r1, #138	; 0x8a
 8010c70:	4a1b      	ldr	r2, [pc, #108]	; (8010ce0 <uart_receive_handler+0xa8>)
 8010c72:	4b1c      	ldr	r3, [pc, #112]	; (8010ce4 <uart_receive_handler+0xac>)
 8010c74:	f001 fa12 	bl	801209c <__assert_func>
 8010c78:	9b01      	ldr	r3, [sp, #4]
 8010c7a:	b34b      	cbz	r3, 8010cd0 <uart_receive_handler+0x98>
 8010c7c:	4b1a      	ldr	r3, [pc, #104]	; (8010ce8 <uart_receive_handler+0xb0>)
 8010c7e:	f853 6035 	ldr.w	r6, [r3, r5, lsl #3]
 8010c82:	eb03 03c5 	add.w	r3, r3, r5, lsl #3
 8010c86:	685f      	ldr	r7, [r3, #4]
 8010c88:	b916      	cbnz	r6, 8010c90 <uart_receive_handler+0x58>
 8010c8a:	4813      	ldr	r0, [pc, #76]	; (8010cd8 <uart_receive_handler+0xa0>)
 8010c8c:	2194      	movs	r1, #148	; 0x94
 8010c8e:	e7ef      	b.n	8010c70 <uart_receive_handler+0x38>
 8010c90:	4620      	mov	r0, r4
 8010c92:	f7ff ff1d 	bl	8010ad0 <vdma_disable_interrupt>
 8010c96:	4639      	mov	r1, r7
 8010c98:	2001      	movs	r0, #1
 8010c9a:	47b0      	blx	r6
 8010c9c:	4620      	mov	r0, r4
 8010c9e:	f7ff fed1 	bl	8010a44 <vdma_enable_interrupt>
 8010ca2:	4620      	mov	r0, r4
 8010ca4:	a901      	add	r1, sp, #4
 8010ca6:	f7ff ff69 	bl	8010b7c <vdma_get_available_receive_bytes>
 8010caa:	b110      	cbz	r0, 8010cb2 <uart_receive_handler+0x7a>
 8010cac:	480a      	ldr	r0, [pc, #40]	; (8010cd8 <uart_receive_handler+0xa0>)
 8010cae:	219e      	movs	r1, #158	; 0x9e
 8010cb0:	e7de      	b.n	8010c70 <uart_receive_handler+0x38>
 8010cb2:	4b0e      	ldr	r3, [pc, #56]	; (8010cec <uart_receive_handler+0xb4>)
 8010cb4:	221c      	movs	r2, #28
 8010cb6:	fb02 3505 	mla	r5, r2, r5, r3
 8010cba:	9b01      	ldr	r3, [sp, #4]
 8010cbc:	696a      	ldr	r2, [r5, #20]
 8010cbe:	4293      	cmp	r3, r2
 8010cc0:	d306      	bcc.n	8010cd0 <uart_receive_handler+0x98>
 8010cc2:	4620      	mov	r0, r4
 8010cc4:	f7ff ff04 	bl	8010ad0 <vdma_disable_interrupt>
 8010cc8:	b110      	cbz	r0, 8010cd0 <uart_receive_handler+0x98>
 8010cca:	4803      	ldr	r0, [pc, #12]	; (8010cd8 <uart_receive_handler+0xa0>)
 8010ccc:	21a4      	movs	r1, #164	; 0xa4
 8010cce:	e7cf      	b.n	8010c70 <uart_receive_handler+0x38>
 8010cd0:	b003      	add	sp, #12
 8010cd2:	bdf0      	pop	{r4, r5, r6, r7, pc}
 8010cd4:	10001894 	mulne	r0, r4, r8
 8010cd8:	08013194 	stmdaeq	r1, {r2, r4, r7, r8, ip, sp}
 8010cdc:	080132f4 	stmdaeq	r1, {r2, r4, r5, r6, r7, r9, ip, sp}
 8010ce0:	080131c5 	stmdaeq	r1, {r0, r2, r6, r7, r8, ip, sp}
 8010ce4:	08013079 	stmdaeq	r1, {r0, r3, r4, r5, r6, ip, sp}
 8010ce8:	10001874 	andne	r1, r0, r4, ror r8
 8010cec:	100018ac 	andne	r1, r0, ip, lsr #17

08010cf0 <uart_send_handler>:
 8010cf0:	e92d 41f3 	stmdb	sp!, {r0, r1, r4, r5, r6, r7, r8, lr}
 8010cf4:	4b20      	ldr	r3, [pc, #128]	; (8010d78 <uart_send_handler+0x88>)
 8010cf6:	5c1e      	ldrb	r6, [r3, r0]
 8010cf8:	b2f6      	uxtb	r6, r6
 8010cfa:	2e02      	cmp	r6, #2
 8010cfc:	4604      	mov	r4, r0
 8010cfe:	460f      	mov	r7, r1
 8010d00:	d002      	beq.n	8010d08 <uart_send_handler+0x18>
 8010d02:	481e      	ldr	r0, [pc, #120]	; (8010d7c <uart_send_handler+0x8c>)
 8010d04:	21be      	movs	r1, #190	; 0xbe
 8010d06:	e00e      	b.n	8010d26 <uart_send_handler+0x36>
 8010d08:	2100      	movs	r1, #0
 8010d0a:	f000 fc09 	bl	8011520 <uart_port_to_dma_channel>
 8010d0e:	4605      	mov	r5, r0
 8010d10:	bb77      	cbnz	r7, 8010d70 <uart_send_handler+0x80>
 8010d12:	4b1b      	ldr	r3, [pc, #108]	; (8010d80 <uart_send_handler+0x90>)
 8010d14:	f853 7034 	ldr.w	r7, [r3, r4, lsl #3]
 8010d18:	eb03 03c4 	add.w	r3, r3, r4, lsl #3
 8010d1c:	f8d3 8004 	ldr.w	r8, [r3, #4]
 8010d20:	b92f      	cbnz	r7, 8010d2e <uart_send_handler+0x3e>
 8010d22:	4816      	ldr	r0, [pc, #88]	; (8010d7c <uart_send_handler+0x8c>)
 8010d24:	21e0      	movs	r1, #224	; 0xe0
 8010d26:	4a17      	ldr	r2, [pc, #92]	; (8010d84 <uart_send_handler+0x94>)
 8010d28:	4b17      	ldr	r3, [pc, #92]	; (8010d88 <uart_send_handler+0x98>)
 8010d2a:	f001 f9b7 	bl	801209c <__assert_func>
 8010d2e:	f7ff fecf 	bl	8010ad0 <vdma_disable_interrupt>
 8010d32:	4641      	mov	r1, r8
 8010d34:	4630      	mov	r0, r6
 8010d36:	47b8      	blx	r7
 8010d38:	4628      	mov	r0, r5
 8010d3a:	f7ff fe83 	bl	8010a44 <vdma_enable_interrupt>
 8010d3e:	4628      	mov	r0, r5
 8010d40:	a901      	add	r1, sp, #4
 8010d42:	f7ff ff2b 	bl	8010b9c <vdma_get_available_send_space>
 8010d46:	b110      	cbz	r0, 8010d4e <uart_send_handler+0x5e>
 8010d48:	480c      	ldr	r0, [pc, #48]	; (8010d7c <uart_send_handler+0x8c>)
 8010d4a:	21ea      	movs	r1, #234	; 0xea
 8010d4c:	e7eb      	b.n	8010d26 <uart_send_handler+0x36>
 8010d4e:	4b0f      	ldr	r3, [pc, #60]	; (8010d8c <uart_send_handler+0x9c>)
 8010d50:	221c      	movs	r2, #28
 8010d52:	fb02 3404 	mla	r4, r2, r4, r3
 8010d56:	68a3      	ldr	r3, [r4, #8]
 8010d58:	6862      	ldr	r2, [r4, #4]
 8010d5a:	1ad2      	subs	r2, r2, r3
 8010d5c:	9b01      	ldr	r3, [sp, #4]
 8010d5e:	4293      	cmp	r3, r2
 8010d60:	d306      	bcc.n	8010d70 <uart_send_handler+0x80>
 8010d62:	4628      	mov	r0, r5
 8010d64:	f7ff feb4 	bl	8010ad0 <vdma_disable_interrupt>
 8010d68:	b110      	cbz	r0, 8010d70 <uart_send_handler+0x80>
 8010d6a:	4804      	ldr	r0, [pc, #16]	; (8010d7c <uart_send_handler+0x8c>)
 8010d6c:	21f2      	movs	r1, #242	; 0xf2
 8010d6e:	e7da      	b.n	8010d26 <uart_send_handler+0x36>
 8010d70:	b002      	add	sp, #8
 8010d72:	e8bd 81f0 	ldmia.w	sp!, {r4, r5, r6, r7, r8, pc}
 8010d76:	bf00      	nop
 8010d78:	10001894 	mulne	r0, r4, r8
 8010d7c:	08013194 	stmdaeq	r1, {r2, r4, r7, r8, ip, sp}
 8010d80:	10001874 	andne	r1, r0, r4, ror r8
 8010d84:	08013206 	stmdaeq	r1, {r1, r2, r9, ip, sp}
 8010d88:	08013079 	stmdaeq	r1, {r0, r3, r4, r5, r6, ip, sp}
 8010d8c:	100018ac 	andne	r1, r0, ip, lsr #17

08010d90 <uart_dma_callback_handler>:
 8010d90:	780b      	ldrb	r3, [r1, #0]
 8010d92:	7848      	ldrb	r0, [r1, #1]
 8010d94:	b113      	cbz	r3, 8010d9c <uart_dma_callback_handler+0xc>
 8010d96:	2100      	movs	r1, #0
 8010d98:	f7ff bf4e 	b.w	8010c38 <uart_receive_handler>
 8010d9c:	4619      	mov	r1, r3
 8010d9e:	f7ff bfa7 	b.w	8010cf0 <uart_send_handler>
	...

08010da4 <uart_error_handler>:
 8010da4:	4b11      	ldr	r3, [pc, #68]	; (8010dec <uart_error_handler+0x48>)
 8010da6:	b570      	push	{r4, r5, r6, lr}
 8010da8:	f853 4020 	ldr.w	r4, [r3, r0, lsl #2]
 8010dac:	4605      	mov	r5, r0
 8010dae:	4620      	mov	r0, r4
 8010db0:	f000 fb8a 	bl	80114c8 <uart_verify_error>
 8010db4:	4606      	mov	r6, r0
 8010db6:	b9c0      	cbnz	r0, 8010dea <uart_error_handler+0x46>
 8010db8:	4620      	mov	r0, r4
 8010dba:	2101      	movs	r1, #1
 8010dbc:	f000 fb64 	bl	8011488 <uart_purge_fifo>
 8010dc0:	4631      	mov	r1, r6
 8010dc2:	4620      	mov	r0, r4
 8010dc4:	f000 fb60 	bl	8011488 <uart_purge_fifo>
 8010dc8:	4a09      	ldr	r2, [pc, #36]	; (8010df0 <uart_error_handler+0x4c>)
 8010dca:	f852 3035 	ldr.w	r3, [r2, r5, lsl #3]
 8010dce:	eb02 05c5 	add.w	r5, r2, r5, lsl #3
 8010dd2:	6869      	ldr	r1, [r5, #4]
 8010dd4:	b933      	cbnz	r3, 8010de4 <uart_error_handler+0x40>
 8010dd6:	4807      	ldr	r0, [pc, #28]	; (8010df4 <uart_error_handler+0x50>)
 8010dd8:	4a07      	ldr	r2, [pc, #28]	; (8010df8 <uart_error_handler+0x54>)
 8010dda:	4b08      	ldr	r3, [pc, #32]	; (8010dfc <uart_error_handler+0x58>)
 8010ddc:	f44f 7184 	mov.w	r1, #264	; 0x108
 8010de0:	f001 f95c 	bl	801209c <__assert_func>
 8010de4:	f04f 30ff 	mov.w	r0, #4294967295
 8010de8:	4798      	blx	r3
 8010dea:	bd70      	pop	{r4, r5, r6, pc}
 8010dec:	080132f4 	stmdaeq	r1, {r2, r4, r5, r6, r7, r9, ip, sp}
 8010df0:	10001874 	andne	r1, r0, r4, ror r8
 8010df4:	08013194 	stmdaeq	r1, {r2, r4, r7, r8, ip, sp}
 8010df8:	08013249 	stmdaeq	r1, {r0, r3, r6, r9, ip, sp}
 8010dfc:	08013079 	stmdaeq	r1, {r0, r3, r4, r5, r6, ip, sp}

08010e00 <hal_uart_init>:
 8010e00:	2803      	cmp	r0, #3
 8010e02:	b5f8      	push	{r3, r4, r5, r6, r7, lr}
 8010e04:	4605      	mov	r5, r0
 8010e06:	460c      	mov	r4, r1
 8010e08:	d857      	bhi.n	8010eba <hal_uart_init+0xba>
 8010e0a:	780b      	ldrb	r3, [r1, #0]
 8010e0c:	2b0c      	cmp	r3, #12
 8010e0e:	d80b      	bhi.n	8010e28 <hal_uart_init+0x28>
 8010e10:	784b      	ldrb	r3, [r1, #1]
 8010e12:	2b03      	cmp	r3, #3
 8010e14:	d808      	bhi.n	8010e28 <hal_uart_init+0x28>
 8010e16:	788b      	ldrb	r3, [r1, #2]
 8010e18:	2b01      	cmp	r3, #1
 8010e1a:	d805      	bhi.n	8010e28 <hal_uart_init+0x28>
 8010e1c:	78cb      	ldrb	r3, [r1, #3]
 8010e1e:	2b02      	cmp	r3, #2
 8010e20:	bf8c      	ite	hi
 8010e22:	2300      	movhi	r3, #0
 8010e24:	2301      	movls	r3, #1
 8010e26:	e000      	b.n	8010e2a <hal_uart_init+0x2a>
 8010e28:	2300      	movs	r3, #0
 8010e2a:	2b00      	cmp	r3, #0
 8010e2c:	d045      	beq.n	8010eba <hal_uart_init+0xba>
 8010e2e:	f002 f87f 	bl	8012f30 <__save_and_set_interrupt_mask_veneer>
 8010e32:	4923      	ldr	r1, [pc, #140]	; (8010ec0 <hal_uart_init+0xc0>)
 8010e34:	5d4b      	ldrb	r3, [r1, r5]
 8010e36:	4607      	mov	r7, r0
 8010e38:	b11b      	cbz	r3, 8010e42 <hal_uart_init+0x42>
 8010e3a:	f002 f881 	bl	8012f40 <__restore_interrupt_mask_veneer>
 8010e3e:	20fd      	movs	r0, #253	; 0xfd
 8010e40:	e03c      	b.n	8010ebc <hal_uart_init+0xbc>
 8010e42:	4a20      	ldr	r2, [pc, #128]	; (8010ec4 <hal_uart_init+0xc4>)
 8010e44:	7813      	ldrb	r3, [r2, #0]
 8010e46:	4610      	mov	r0, r2
 8010e48:	b96b      	cbnz	r3, 8010e66 <hal_uart_init+0x66>
 8010e4a:	4e1f      	ldr	r6, [pc, #124]	; (8010ec8 <hal_uart_init+0xc8>)
 8010e4c:	eb06 0ec3 	add.w	lr, r6, r3, lsl #3
 8010e50:	2200      	movs	r2, #0
 8010e52:	54ca      	strb	r2, [r1, r3]
 8010e54:	f8ce 2004 	str.w	r2, [lr, #4]
 8010e58:	f846 2033 	str.w	r2, [r6, r3, lsl #3]
 8010e5c:	3301      	adds	r3, #1
 8010e5e:	2b04      	cmp	r3, #4
 8010e60:	d1f3      	bne.n	8010e4a <hal_uart_init+0x4a>
 8010e62:	2301      	movs	r3, #1
 8010e64:	7003      	strb	r3, [r0, #0]
 8010e66:	2301      	movs	r3, #1
 8010e68:	4638      	mov	r0, r7
 8010e6a:	554b      	strb	r3, [r1, r5]
 8010e6c:	f002 f868 	bl	8012f40 <__restore_interrupt_mask_veneer>
 8010e70:	4b16      	ldr	r3, [pc, #88]	; (8010ecc <hal_uart_init+0xcc>)
 8010e72:	5d58      	ldrb	r0, [r3, r5]
 8010e74:	f002 f874 	bl	8012f60 <__hal_clock_enable_veneer>
 8010e78:	4606      	mov	r6, r0
 8010e7a:	b130      	cbz	r0, 8010e8a <hal_uart_init+0x8a>
 8010e7c:	4814      	ldr	r0, [pc, #80]	; (8010ed0 <hal_uart_init+0xd0>)
 8010e7e:	4a15      	ldr	r2, [pc, #84]	; (8010ed4 <hal_uart_init+0xd4>)
 8010e80:	4b15      	ldr	r3, [pc, #84]	; (8010ed8 <hal_uart_init+0xd8>)
 8010e82:	f44f 71f7 	mov.w	r1, #494	; 0x1ee
 8010e86:	f001 f909 	bl	801209c <__assert_func>
 8010e8a:	4b14      	ldr	r3, [pc, #80]	; (8010edc <hal_uart_init+0xdc>)
 8010e8c:	f853 5025 	ldr.w	r5, [r3, r5, lsl #2]
 8010e90:	4628      	mov	r0, r5
 8010e92:	f000 fb23 	bl	80114dc <uart_reset_default_value>
 8010e96:	7822      	ldrb	r2, [r4, #0]
 8010e98:	4b11      	ldr	r3, [pc, #68]	; (8010ee0 <hal_uart_init+0xe0>)
 8010e9a:	4628      	mov	r0, r5
 8010e9c:	f853 1022 	ldr.w	r1, [r3, r2, lsl #2]
 8010ea0:	f000 fa3e 	bl	8011320 <uart_set_baudrate>
 8010ea4:	4628      	mov	r0, r5
 8010ea6:	7861      	ldrb	r1, [r4, #1]
 8010ea8:	78a2      	ldrb	r2, [r4, #2]
 8010eaa:	78e3      	ldrb	r3, [r4, #3]
 8010eac:	f000 faa8 	bl	8011400 <uart_set_format>
 8010eb0:	4628      	mov	r0, r5
 8010eb2:	f000 facb 	bl	801144c <uart_set_fifo>
 8010eb6:	4630      	mov	r0, r6
 8010eb8:	e000      	b.n	8010ebc <hal_uart_init+0xbc>
 8010eba:	20fc      	movs	r0, #252	; 0xfc
 8010ebc:	b240      	sxtb	r0, r0
 8010ebe:	bdf8      	pop	{r3, r4, r5, r6, r7, pc}
 8010ec0:	10001894 	mulne	r0, r4, r8
 8010ec4:	10001898 	mulne	r0, r8, r8
 8010ec8:	10001874 	andne	r1, r0, r4, ror r8
 8010ecc:	080132d7 	stmdaeq	r1, {r0, r1, r2, r4, r6, r7, r9, ip, sp}
 8010ed0:	08013194 	stmdaeq	r1, {r2, r4, r7, r8, ip, sp}
 8010ed4:	08013186 	stmdaeq	r1, {r1, r2, r7, r8, ip, sp}
 8010ed8:	08013079 	stmdaeq	r1, {r0, r3, r4, r5, r6, ip, sp}
 8010edc:	080132f4 	stmdaeq	r1, {r2, r4, r5, r6, r7, r9, ip, sp}
 8010ee0:	0801325c 	stmdaeq	r1, {r2, r3, r4, r6, r9, ip, sp}

08010ee4 <hal_uart_send_dma>:
 8010ee4:	2803      	cmp	r0, #3
 8010ee6:	b5f7      	push	{r0, r1, r2, r4, r5, r6, r7, lr}
 8010ee8:	460d      	mov	r5, r1
 8010eea:	4614      	mov	r4, r2
 8010eec:	d835      	bhi.n	8010f5a <hal_uart_send_dma+0x76>
 8010eee:	2900      	cmp	r1, #0
 8010ef0:	d033      	beq.n	8010f5a <hal_uart_send_dma+0x76>
 8010ef2:	2a00      	cmp	r2, #0
 8010ef4:	d033      	beq.n	8010f5e <hal_uart_send_dma+0x7a>
 8010ef6:	4a1b      	ldr	r2, [pc, #108]	; (8010f64 <hal_uart_send_dma+0x80>)
 8010ef8:	5c13      	ldrb	r3, [r2, r0]
 8010efa:	2b02      	cmp	r3, #2
 8010efc:	d12d      	bne.n	8010f5a <hal_uart_send_dma+0x76>
 8010efe:	2100      	movs	r1, #0
 8010f00:	f000 fb0e 	bl	8011520 <uart_port_to_dma_channel>
 8010f04:	a901      	add	r1, sp, #4
 8010f06:	4606      	mov	r6, r0
 8010f08:	f7ff fe48 	bl	8010b9c <vdma_get_available_send_space>
 8010f0c:	b118      	cbz	r0, 8010f16 <hal_uart_send_dma+0x32>
 8010f0e:	4816      	ldr	r0, [pc, #88]	; (8010f68 <hal_uart_send_dma+0x84>)
 8010f10:	f44f 7129 	mov.w	r1, #676	; 0x2a4
 8010f14:	e012      	b.n	8010f3c <hal_uart_send_dma+0x58>
 8010f16:	9b01      	ldr	r3, [sp, #4]
 8010f18:	429c      	cmp	r4, r3
 8010f1a:	bf34      	ite	cc
 8010f1c:	4627      	movcc	r7, r4
 8010f1e:	461f      	movcs	r7, r3
 8010f20:	4604      	mov	r4, r0
 8010f22:	e000      	b.n	8010f26 <hal_uart_send_dma+0x42>
 8010f24:	3401      	adds	r4, #1
 8010f26:	42bc      	cmp	r4, r7
 8010f28:	d00c      	beq.n	8010f44 <hal_uart_send_dma+0x60>
 8010f2a:	4630      	mov	r0, r6
 8010f2c:	5d29      	ldrb	r1, [r5, r4]
 8010f2e:	f7ff fe07 	bl	8010b40 <vdma_push_data>
 8010f32:	2800      	cmp	r0, #0
 8010f34:	d0f6      	beq.n	8010f24 <hal_uart_send_dma+0x40>
 8010f36:	480c      	ldr	r0, [pc, #48]	; (8010f68 <hal_uart_send_dma+0x84>)
 8010f38:	f44f 712c 	mov.w	r1, #688	; 0x2b0
 8010f3c:	4a0b      	ldr	r2, [pc, #44]	; (8010f6c <hal_uart_send_dma+0x88>)
 8010f3e:	4b0c      	ldr	r3, [pc, #48]	; (8010f70 <hal_uart_send_dma+0x8c>)
 8010f40:	f001 f8ac 	bl	801209c <__assert_func>
 8010f44:	9b01      	ldr	r3, [sp, #4]
 8010f46:	429c      	cmp	r4, r3
 8010f48:	d109      	bne.n	8010f5e <hal_uart_send_dma+0x7a>
 8010f4a:	4630      	mov	r0, r6
 8010f4c:	f7ff fd7a 	bl	8010a44 <vdma_enable_interrupt>
 8010f50:	b128      	cbz	r0, 8010f5e <hal_uart_send_dma+0x7a>
 8010f52:	4805      	ldr	r0, [pc, #20]	; (8010f68 <hal_uart_send_dma+0x84>)
 8010f54:	f240 21bb 	movw	r1, #699	; 0x2bb
 8010f58:	e7f0      	b.n	8010f3c <hal_uart_send_dma+0x58>
 8010f5a:	2000      	movs	r0, #0
 8010f5c:	e000      	b.n	8010f60 <hal_uart_send_dma+0x7c>
 8010f5e:	4620      	mov	r0, r4
 8010f60:	b003      	add	sp, #12
 8010f62:	bdf0      	pop	{r4, r5, r6, r7, pc}
 8010f64:	10001894 	mulne	r0, r4, r8
 8010f68:	08013194 	stmdaeq	r1, {r2, r4, r7, r8, ip, sp}
 8010f6c:	0801314f 	stmdaeq	r1, {r0, r1, r2, r3, r6, r8, ip, sp}
 8010f70:	08013079 	stmdaeq	r1, {r0, r3, r4, r5, r6, ip, sp}

08010f74 <hal_uart_receive_dma>:
 8010f74:	2803      	cmp	r0, #3
 8010f76:	b5f7      	push	{r0, r1, r2, r4, r5, r6, r7, lr}
 8010f78:	460d      	mov	r5, r1
 8010f7a:	4614      	mov	r4, r2
 8010f7c:	d835      	bhi.n	8010fea <hal_uart_receive_dma+0x76>
 8010f7e:	2900      	cmp	r1, #0
 8010f80:	d033      	beq.n	8010fea <hal_uart_receive_dma+0x76>
 8010f82:	2a00      	cmp	r2, #0
 8010f84:	d033      	beq.n	8010fee <hal_uart_receive_dma+0x7a>
 8010f86:	4a1b      	ldr	r2, [pc, #108]	; (8010ff4 <hal_uart_receive_dma+0x80>)
 8010f88:	5c13      	ldrb	r3, [r2, r0]
 8010f8a:	2b02      	cmp	r3, #2
 8010f8c:	d12d      	bne.n	8010fea <hal_uart_receive_dma+0x76>
 8010f8e:	2101      	movs	r1, #1
 8010f90:	f000 fac6 	bl	8011520 <uart_port_to_dma_channel>
 8010f94:	a901      	add	r1, sp, #4
 8010f96:	4606      	mov	r6, r0
 8010f98:	f7ff fdf0 	bl	8010b7c <vdma_get_available_receive_bytes>
 8010f9c:	b118      	cbz	r0, 8010fa6 <hal_uart_receive_dma+0x32>
 8010f9e:	4816      	ldr	r0, [pc, #88]	; (8010ff8 <hal_uart_receive_dma+0x84>)
 8010fa0:	f240 3115 	movw	r1, #789	; 0x315
 8010fa4:	e012      	b.n	8010fcc <hal_uart_receive_dma+0x58>
 8010fa6:	9b01      	ldr	r3, [sp, #4]
 8010fa8:	429c      	cmp	r4, r3
 8010faa:	bf34      	ite	cc
 8010fac:	4627      	movcc	r7, r4
 8010fae:	461f      	movcs	r7, r3
 8010fb0:	4604      	mov	r4, r0
 8010fb2:	e000      	b.n	8010fb6 <hal_uart_receive_dma+0x42>
 8010fb4:	3401      	adds	r4, #1
 8010fb6:	42bc      	cmp	r4, r7
 8010fb8:	d00c      	beq.n	8010fd4 <hal_uart_receive_dma+0x60>
 8010fba:	4630      	mov	r0, r6
 8010fbc:	1929      	adds	r1, r5, r4
 8010fbe:	f7ff fdcd 	bl	8010b5c <vdma_pop_data>
 8010fc2:	2800      	cmp	r0, #0
 8010fc4:	d0f6      	beq.n	8010fb4 <hal_uart_receive_dma+0x40>
 8010fc6:	480c      	ldr	r0, [pc, #48]	; (8010ff8 <hal_uart_receive_dma+0x84>)
 8010fc8:	f240 3121 	movw	r1, #801	; 0x321
 8010fcc:	4a0b      	ldr	r2, [pc, #44]	; (8010ffc <hal_uart_receive_dma+0x88>)
 8010fce:	4b0c      	ldr	r3, [pc, #48]	; (8011000 <hal_uart_receive_dma+0x8c>)
 8010fd0:	f001 f864 	bl	801209c <__assert_func>
 8010fd4:	9b01      	ldr	r3, [sp, #4]
 8010fd6:	429c      	cmp	r4, r3
 8010fd8:	d109      	bne.n	8010fee <hal_uart_receive_dma+0x7a>
 8010fda:	4630      	mov	r0, r6
 8010fdc:	f7ff fd32 	bl	8010a44 <vdma_enable_interrupt>
 8010fe0:	b128      	cbz	r0, 8010fee <hal_uart_receive_dma+0x7a>
 8010fe2:	4805      	ldr	r0, [pc, #20]	; (8010ff8 <hal_uart_receive_dma+0x84>)
 8010fe4:	f44f 714b 	mov.w	r1, #812	; 0x32c
 8010fe8:	e7f0      	b.n	8010fcc <hal_uart_receive_dma+0x58>
 8010fea:	2000      	movs	r0, #0
 8010fec:	e000      	b.n	8010ff0 <hal_uart_receive_dma+0x7c>
 8010fee:	4620      	mov	r0, r4
 8010ff0:	b003      	add	sp, #12
 8010ff2:	bdf0      	pop	{r4, r5, r6, r7, pc}
 8010ff4:	10001894 	mulne	r0, r4, r8
 8010ff8:	08013194 	stmdaeq	r1, {r2, r4, r7, r8, ip, sp}
 8010ffc:	08013218 	stmdaeq	r1, {r3, r4, r9, ip, sp}
 8011000:	08013079 	stmdaeq	r1, {r0, r3, r4, r5, r6, ip, sp}

08011004 <hal_uart_register_callback>:
 8011004:	2803      	cmp	r0, #3
 8011006:	e92d 4ff7 	stmdb	sp!, {r0, r1, r2, r4, r5, r6, r7, r8, r9, sl, fp, lr}
 801100a:	4604      	mov	r4, r0
 801100c:	4689      	mov	r9, r1
 801100e:	4693      	mov	fp, r2
 8011010:	f200 809f 	bhi.w	8011152 <hal_uart_register_callback+0x14e>
 8011014:	2900      	cmp	r1, #0
 8011016:	f000 809c 	beq.w	8011152 <hal_uart_register_callback+0x14e>
 801101a:	f001 ff89 	bl	8012f30 <__save_and_set_interrupt_mask_veneer>
 801101e:	4b4f      	ldr	r3, [pc, #316]	; (801115c <hal_uart_register_callback+0x158>)
 8011020:	5d1e      	ldrb	r6, [r3, r4]
 8011022:	b2f6      	uxtb	r6, r6
 8011024:	2e01      	cmp	r6, #1
 8011026:	4605      	mov	r5, r0
 8011028:	469a      	mov	sl, r3
 801102a:	d003      	beq.n	8011034 <hal_uart_register_callback+0x30>
 801102c:	f001 ff88 	bl	8012f40 <__restore_interrupt_mask_veneer>
 8011030:	20fe      	movs	r0, #254	; 0xfe
 8011032:	e08f      	b.n	8011154 <hal_uart_register_callback+0x150>
 8011034:	2100      	movs	r1, #0
 8011036:	4620      	mov	r0, r4
 8011038:	f000 fa72 	bl	8011520 <uart_port_to_dma_channel>
 801103c:	4631      	mov	r1, r6
 801103e:	4680      	mov	r8, r0
 8011040:	4620      	mov	r0, r4
 8011042:	f000 fa6d 	bl	8011520 <uart_port_to_dma_channel>
 8011046:	4b46      	ldr	r3, [pc, #280]	; (8011160 <hal_uart_register_callback+0x15c>)
 8011048:	f843 9034 	str.w	r9, [r3, r4, lsl #3]
 801104c:	eb03 03c4 	add.w	r3, r3, r4, lsl #3
 8011050:	f8df 912c 	ldr.w	r9, [pc, #300]	; 8011180 <hal_uart_register_callback+0x17c>
 8011054:	f8c3 b004 	str.w	fp, [r3, #4]
 8011058:	eb09 0b84 	add.w	fp, r9, r4, lsl #2
 801105c:	0063      	lsls	r3, r4, #1
 801105e:	4659      	mov	r1, fp
 8011060:	4607      	mov	r7, r0
 8011062:	4640      	mov	r0, r8
 8011064:	9301      	str	r3, [sp, #4]
 8011066:	f000 fa77 	bl	8011558 <uart_dma_channel_to_callback_data>
 801106a:	4640      	mov	r0, r8
 801106c:	493d      	ldr	r1, [pc, #244]	; (8011164 <hal_uart_register_callback+0x160>)
 801106e:	465a      	mov	r2, fp
 8011070:	f7ff fda6 	bl	8010bc0 <vdma_register_callback>
 8011074:	9b01      	ldr	r3, [sp, #4]
 8011076:	b130      	cbz	r0, 8011086 <hal_uart_register_callback+0x82>
 8011078:	4628      	mov	r0, r5
 801107a:	f001 ff61 	bl	8012f40 <__restore_interrupt_mask_veneer>
 801107e:	483a      	ldr	r0, [pc, #232]	; (8011168 <hal_uart_register_callback+0x164>)
 8011080:	f240 3179 	movw	r1, #889	; 0x379
 8011084:	e012      	b.n	80110ac <hal_uart_register_callback+0xa8>
 8011086:	3301      	adds	r3, #1
 8011088:	eb09 0943 	add.w	r9, r9, r3, lsl #1
 801108c:	4638      	mov	r0, r7
 801108e:	4649      	mov	r1, r9
 8011090:	f000 fa62 	bl	8011558 <uart_dma_channel_to_callback_data>
 8011094:	4638      	mov	r0, r7
 8011096:	4933      	ldr	r1, [pc, #204]	; (8011164 <hal_uart_register_callback+0x160>)
 8011098:	464a      	mov	r2, r9
 801109a:	f7ff fd91 	bl	8010bc0 <vdma_register_callback>
 801109e:	b148      	cbz	r0, 80110b4 <hal_uart_register_callback+0xb0>
 80110a0:	4628      	mov	r0, r5
 80110a2:	f001 ff4d 	bl	8012f40 <__restore_interrupt_mask_veneer>
 80110a6:	4830      	ldr	r0, [pc, #192]	; (8011168 <hal_uart_register_callback+0x164>)
 80110a8:	f44f 7160 	mov.w	r1, #896	; 0x380
 80110ac:	4a2f      	ldr	r2, [pc, #188]	; (801116c <hal_uart_register_callback+0x168>)
 80110ae:	4b30      	ldr	r3, [pc, #192]	; (8011170 <hal_uart_register_callback+0x16c>)
 80110b0:	f000 fff4 	bl	801209c <__assert_func>
 80110b4:	f8df 90cc 	ldr.w	r9, [pc, #204]	; 8011184 <hal_uart_register_callback+0x180>
 80110b8:	492e      	ldr	r1, [pc, #184]	; (8011174 <hal_uart_register_callback+0x170>)
 80110ba:	f919 0004 	ldrsb.w	r0, [r9, r4]
 80110be:	f000 fad7 	bl	8011670 <hal_nvic_register_isr_handler>
 80110c2:	4601      	mov	r1, r0
 80110c4:	b130      	cbz	r0, 80110d4 <hal_uart_register_callback+0xd0>
 80110c6:	4628      	mov	r0, r5
 80110c8:	f001 ff3a 	bl	8012f40 <__restore_interrupt_mask_veneer>
 80110cc:	4826      	ldr	r0, [pc, #152]	; (8011168 <hal_uart_register_callback+0x164>)
 80110ce:	f240 3186 	movw	r1, #902	; 0x386
 80110d2:	e7eb      	b.n	80110ac <hal_uart_register_callback+0xa8>
 80110d4:	4b28      	ldr	r3, [pc, #160]	; (8011178 <hal_uart_register_callback+0x174>)
 80110d6:	4620      	mov	r0, r4
 80110d8:	f853 7024 	ldr.w	r7, [r3, r4, lsl #2]
 80110dc:	f000 fa20 	bl	8011520 <uart_port_to_dma_channel>
 80110e0:	4631      	mov	r1, r6
 80110e2:	4680      	mov	r8, r0
 80110e4:	4620      	mov	r0, r4
 80110e6:	f000 fa1b 	bl	8011520 <uart_port_to_dma_channel>
 80110ea:	4606      	mov	r6, r0
 80110ec:	4638      	mov	r0, r7
 80110ee:	f000 f9bc 	bl	801146a <uart_unmask_receive_interrupt>
 80110f2:	f919 0004 	ldrsb.w	r0, [r9, r4]
 80110f6:	f000 faa7 	bl	8011648 <hal_nvic_enable_irq>
 80110fa:	4640      	mov	r0, r8
 80110fc:	f7ff fca2 	bl	8010a44 <vdma_enable_interrupt>
 8011100:	b118      	cbz	r0, 801110a <hal_uart_register_callback+0x106>
 8011102:	4819      	ldr	r0, [pc, #100]	; (8011168 <hal_uart_register_callback+0x164>)
 8011104:	f240 3146 	movw	r1, #838	; 0x346
 8011108:	e016      	b.n	8011138 <hal_uart_register_callback+0x134>
 801110a:	4630      	mov	r0, r6
 801110c:	f7ff fc9a 	bl	8010a44 <vdma_enable_interrupt>
 8011110:	b118      	cbz	r0, 801111a <hal_uart_register_callback+0x116>
 8011112:	4815      	ldr	r0, [pc, #84]	; (8011168 <hal_uart_register_callback+0x164>)
 8011114:	f240 314b 	movw	r1, #843	; 0x34b
 8011118:	e00e      	b.n	8011138 <hal_uart_register_callback+0x134>
 801111a:	4640      	mov	r0, r8
 801111c:	f7ff fca4 	bl	8010a68 <vdma_start>
 8011120:	b118      	cbz	r0, 801112a <hal_uart_register_callback+0x126>
 8011122:	4811      	ldr	r0, [pc, #68]	; (8011168 <hal_uart_register_callback+0x164>)
 8011124:	f44f 7154 	mov.w	r1, #848	; 0x350
 8011128:	e006      	b.n	8011138 <hal_uart_register_callback+0x134>
 801112a:	4630      	mov	r0, r6
 801112c:	f7ff fc9c 	bl	8010a68 <vdma_start>
 8011130:	b120      	cbz	r0, 801113c <hal_uart_register_callback+0x138>
 8011132:	480d      	ldr	r0, [pc, #52]	; (8011168 <hal_uart_register_callback+0x164>)
 8011134:	f240 3155 	movw	r1, #853	; 0x355
 8011138:	4a10      	ldr	r2, [pc, #64]	; (801117c <hal_uart_register_callback+0x178>)
 801113a:	e7b8      	b.n	80110ae <hal_uart_register_callback+0xaa>
 801113c:	4638      	mov	r0, r7
 801113e:	f000 fa2e 	bl	801159e <uart_enable_dma>
 8011142:	2302      	movs	r3, #2
 8011144:	4628      	mov	r0, r5
 8011146:	f80a 3004 	strb.w	r3, [sl, r4]
 801114a:	f001 fef9 	bl	8012f40 <__restore_interrupt_mask_veneer>
 801114e:	2000      	movs	r0, #0
 8011150:	e000      	b.n	8011154 <hal_uart_register_callback+0x150>
 8011152:	20fc      	movs	r0, #252	; 0xfc
 8011154:	b240      	sxtb	r0, r0
 8011156:	b003      	add	sp, #12
 8011158:	e8bd 8ff0 	ldmia.w	sp!, {r4, r5, r6, r7, r8, r9, sl, fp, pc}
 801115c:	10001894 	mulne	r0, r4, r8
 8011160:	10001874 	andne	r1, r0, r4, ror r8
 8011164:	08010d91 	stmdaeq	r1, {r0, r4, r7, r8, sl, fp}
 8011168:	08013194 	stmdaeq	r1, {r2, r4, r7, r8, ip, sp}
 801116c:	080131da 	stmdaeq	r1, {r1, r3, r4, r6, r7, r8, ip, sp}
 8011170:	08013079 	stmdaeq	r1, {r0, r3, r4, r5, r6, ip, sp}
 8011174:	080115a5 	stmdaeq	r1, {r0, r2, r5, r7, r8, sl, ip}
 8011178:	080132f4 	stmdaeq	r1, {r2, r4, r5, r6, r7, r9, ip, sp}
 801117c:	0801322d 	stmdaeq	r1, {r0, r2, r3, r5, r9, ip, sp}
 8011180:	10001899 	mulne	r0, r9, r8
 8011184:	08013290 	stmdaeq	r1, {r4, r7, r9, ip, sp}

08011188 <hal_uart_get_available_receive_bytes>:
 8011188:	2803      	cmp	r0, #3
 801118a:	b507      	push	{r0, r1, r2, lr}
 801118c:	d813      	bhi.n	80111b6 <hal_uart_get_available_receive_bytes+0x2e>
 801118e:	4a0c      	ldr	r2, [pc, #48]	; (80111c0 <hal_uart_get_available_receive_bytes+0x38>)
 8011190:	5c13      	ldrb	r3, [r2, r0]
 8011192:	2b02      	cmp	r3, #2
 8011194:	d10f      	bne.n	80111b6 <hal_uart_get_available_receive_bytes+0x2e>
 8011196:	2101      	movs	r1, #1
 8011198:	f000 f9c2 	bl	8011520 <uart_port_to_dma_channel>
 801119c:	a901      	add	r1, sp, #4
 801119e:	f7ff fced 	bl	8010b7c <vdma_get_available_receive_bytes>
 80111a2:	b130      	cbz	r0, 80111b2 <hal_uart_get_available_receive_bytes+0x2a>
 80111a4:	4807      	ldr	r0, [pc, #28]	; (80111c4 <hal_uart_get_available_receive_bytes+0x3c>)
 80111a6:	4a08      	ldr	r2, [pc, #32]	; (80111c8 <hal_uart_get_available_receive_bytes+0x40>)
 80111a8:	4b08      	ldr	r3, [pc, #32]	; (80111cc <hal_uart_get_available_receive_bytes+0x44>)
 80111aa:	f44f 716f 	mov.w	r1, #956	; 0x3bc
 80111ae:	f000 ff75 	bl	801209c <__assert_func>
 80111b2:	9801      	ldr	r0, [sp, #4]
 80111b4:	e000      	b.n	80111b8 <hal_uart_get_available_receive_bytes+0x30>
 80111b6:	2000      	movs	r0, #0
 80111b8:	b003      	add	sp, #12
 80111ba:	f85d fb04 	ldr.w	pc, [sp], #4
 80111be:	bf00      	nop
 80111c0:	10001894 	mulne	r0, r4, r8
 80111c4:	08013194 	stmdaeq	r1, {r2, r4, r7, r8, ip, sp}
 80111c8:	08013161 	stmdaeq	r1, {r0, r5, r6, r8, ip, sp}
 80111cc:	08013079 	stmdaeq	r1, {r0, r3, r4, r5, r6, ip, sp}

080111d0 <hal_uart_set_dma>:
 80111d0:	2803      	cmp	r0, #3
 80111d2:	b5f7      	push	{r0, r1, r2, r4, r5, r6, r7, lr}
 80111d4:	4605      	mov	r5, r0
 80111d6:	460c      	mov	r4, r1
 80111d8:	f200 808f 	bhi.w	80112fa <hal_uart_set_dma+0x12a>
 80111dc:	680b      	ldr	r3, [r1, #0]
 80111de:	2b00      	cmp	r3, #0
 80111e0:	f000 808b 	beq.w	80112fa <hal_uart_set_dma+0x12a>
 80111e4:	68cb      	ldr	r3, [r1, #12]
 80111e6:	2b00      	cmp	r3, #0
 80111e8:	f000 8087 	beq.w	80112fa <hal_uart_set_dma+0x12a>
 80111ec:	684a      	ldr	r2, [r1, #4]
 80111ee:	4b46      	ldr	r3, [pc, #280]	; (8011308 <hal_uart_set_dma+0x138>)
 80111f0:	429a      	cmp	r2, r3
 80111f2:	f200 8082 	bhi.w	80112fa <hal_uart_set_dma+0x12a>
 80111f6:	6889      	ldr	r1, [r1, #8]
 80111f8:	4299      	cmp	r1, r3
 80111fa:	d87e      	bhi.n	80112fa <hal_uart_set_dma+0x12a>
 80111fc:	4291      	cmp	r1, r2
 80111fe:	d87c      	bhi.n	80112fa <hal_uart_set_dma+0x12a>
 8011200:	6922      	ldr	r2, [r4, #16]
 8011202:	429a      	cmp	r2, r3
 8011204:	d879      	bhi.n	80112fa <hal_uart_set_dma+0x12a>
 8011206:	6960      	ldr	r0, [r4, #20]
 8011208:	4298      	cmp	r0, r3
 801120a:	d876      	bhi.n	80112fa <hal_uart_set_dma+0x12a>
 801120c:	69a1      	ldr	r1, [r4, #24]
 801120e:	4299      	cmp	r1, r3
 8011210:	d873      	bhi.n	80112fa <hal_uart_set_dma+0x12a>
 8011212:	4290      	cmp	r0, r2
 8011214:	d871      	bhi.n	80112fa <hal_uart_set_dma+0x12a>
 8011216:	4291      	cmp	r1, r2
 8011218:	d86f      	bhi.n	80112fa <hal_uart_set_dma+0x12a>
 801121a:	4b3c      	ldr	r3, [pc, #240]	; (801130c <hal_uart_set_dma+0x13c>)
 801121c:	5d5e      	ldrb	r6, [r3, r5]
 801121e:	b2f6      	uxtb	r6, r6
 8011220:	2e01      	cmp	r6, #1
 8011222:	d16c      	bne.n	80112fe <hal_uart_set_dma+0x12e>
 8011224:	2100      	movs	r1, #0
 8011226:	4628      	mov	r0, r5
 8011228:	f000 f97a 	bl	8011520 <uart_port_to_dma_channel>
 801122c:	4631      	mov	r1, r6
 801122e:	4607      	mov	r7, r0
 8011230:	4628      	mov	r0, r5
 8011232:	f000 f975 	bl	8011520 <uart_port_to_dma_channel>
 8011236:	4606      	mov	r6, r0
 8011238:	4638      	mov	r0, r7
 801123a:	f7ff fb43 	bl	80108c4 <vdma_init>
 801123e:	b118      	cbz	r0, 8011248 <hal_uart_set_dma+0x78>
 8011240:	4833      	ldr	r0, [pc, #204]	; (8011310 <hal_uart_set_dma+0x140>)
 8011242:	f240 4133 	movw	r1, #1075	; 0x433
 8011246:	e00b      	b.n	8011260 <hal_uart_set_dma+0x90>
 8011248:	6823      	ldr	r3, [r4, #0]
 801124a:	9300      	str	r3, [sp, #0]
 801124c:	4638      	mov	r0, r7
 801124e:	6863      	ldr	r3, [r4, #4]
 8011250:	9301      	str	r3, [sp, #4]
 8011252:	4669      	mov	r1, sp
 8011254:	f7ff fbcc 	bl	80109f0 <vdma_configure>
 8011258:	b130      	cbz	r0, 8011268 <hal_uart_set_dma+0x98>
 801125a:	482d      	ldr	r0, [pc, #180]	; (8011310 <hal_uart_set_dma+0x140>)
 801125c:	f240 413a 	movw	r1, #1082	; 0x43a
 8011260:	4a2c      	ldr	r2, [pc, #176]	; (8011314 <hal_uart_set_dma+0x144>)
 8011262:	4b2d      	ldr	r3, [pc, #180]	; (8011318 <hal_uart_set_dma+0x148>)
 8011264:	f000 ff1a 	bl	801209c <__assert_func>
 8011268:	4638      	mov	r0, r7
 801126a:	68a1      	ldr	r1, [r4, #8]
 801126c:	f7ff fc42 	bl	8010af4 <vdma_set_threshold>
 8011270:	b118      	cbz	r0, 801127a <hal_uart_set_dma+0xaa>
 8011272:	4827      	ldr	r0, [pc, #156]	; (8011310 <hal_uart_set_dma+0x140>)
 8011274:	f240 413f 	movw	r1, #1087	; 0x43f
 8011278:	e7f2      	b.n	8011260 <hal_uart_set_dma+0x90>
 801127a:	4630      	mov	r0, r6
 801127c:	f7ff fb22 	bl	80108c4 <vdma_init>
 8011280:	b118      	cbz	r0, 801128a <hal_uart_set_dma+0xba>
 8011282:	4823      	ldr	r0, [pc, #140]	; (8011310 <hal_uart_set_dma+0x140>)
 8011284:	f240 4145 	movw	r1, #1093	; 0x445
 8011288:	e7ea      	b.n	8011260 <hal_uart_set_dma+0x90>
 801128a:	68e3      	ldr	r3, [r4, #12]
 801128c:	9300      	str	r3, [sp, #0]
 801128e:	4630      	mov	r0, r6
 8011290:	6923      	ldr	r3, [r4, #16]
 8011292:	9301      	str	r3, [sp, #4]
 8011294:	4669      	mov	r1, sp
 8011296:	f7ff fbab 	bl	80109f0 <vdma_configure>
 801129a:	b118      	cbz	r0, 80112a4 <hal_uart_set_dma+0xd4>
 801129c:	481c      	ldr	r0, [pc, #112]	; (8011310 <hal_uart_set_dma+0x140>)
 801129e:	f240 414c 	movw	r1, #1100	; 0x44c
 80112a2:	e7dd      	b.n	8011260 <hal_uart_set_dma+0x90>
 80112a4:	4630      	mov	r0, r6
 80112a6:	6961      	ldr	r1, [r4, #20]
 80112a8:	f7ff fc24 	bl	8010af4 <vdma_set_threshold>
 80112ac:	b118      	cbz	r0, 80112b6 <hal_uart_set_dma+0xe6>
 80112ae:	4818      	ldr	r0, [pc, #96]	; (8011310 <hal_uart_set_dma+0x140>)
 80112b0:	f240 4151 	movw	r1, #1105	; 0x451
 80112b4:	e7d4      	b.n	8011260 <hal_uart_set_dma+0x90>
 80112b6:	4630      	mov	r0, r6
 80112b8:	69a1      	ldr	r1, [r4, #24]
 80112ba:	f7ff fc2f 	bl	8010b1c <vdma_set_alert_length>
 80112be:	4606      	mov	r6, r0
 80112c0:	b118      	cbz	r0, 80112ca <hal_uart_set_dma+0xfa>
 80112c2:	4813      	ldr	r0, [pc, #76]	; (8011310 <hal_uart_set_dma+0x140>)
 80112c4:	f240 4156 	movw	r1, #1110	; 0x456
 80112c8:	e7ca      	b.n	8011260 <hal_uart_set_dma+0x90>
 80112ca:	f001 fe31 	bl	8012f30 <__save_and_set_interrupt_mask_veneer>
 80112ce:	4a13      	ldr	r2, [pc, #76]	; (801131c <hal_uart_set_dma+0x14c>)
 80112d0:	6821      	ldr	r1, [r4, #0]
 80112d2:	231c      	movs	r3, #28
 80112d4:	435d      	muls	r5, r3
 80112d6:	1953      	adds	r3, r2, r5
 80112d8:	5151      	str	r1, [r2, r5]
 80112da:	6862      	ldr	r2, [r4, #4]
 80112dc:	605a      	str	r2, [r3, #4]
 80112de:	68a2      	ldr	r2, [r4, #8]
 80112e0:	609a      	str	r2, [r3, #8]
 80112e2:	69a2      	ldr	r2, [r4, #24]
 80112e4:	619a      	str	r2, [r3, #24]
 80112e6:	68e2      	ldr	r2, [r4, #12]
 80112e8:	60da      	str	r2, [r3, #12]
 80112ea:	6922      	ldr	r2, [r4, #16]
 80112ec:	611a      	str	r2, [r3, #16]
 80112ee:	6962      	ldr	r2, [r4, #20]
 80112f0:	615a      	str	r2, [r3, #20]
 80112f2:	f001 fe25 	bl	8012f40 <__restore_interrupt_mask_veneer>
 80112f6:	4630      	mov	r0, r6
 80112f8:	e002      	b.n	8011300 <hal_uart_set_dma+0x130>
 80112fa:	20fc      	movs	r0, #252	; 0xfc
 80112fc:	e000      	b.n	8011300 <hal_uart_set_dma+0x130>
 80112fe:	20fe      	movs	r0, #254	; 0xfe
 8011300:	b240      	sxtb	r0, r0
 8011302:	b003      	add	sp, #12
 8011304:	bdf0      	pop	{r4, r5, r6, r7, pc}
 8011306:	bf00      	nop
 8011308:	0001ffff 	strdeq	pc, [r1], -pc	; <UNPREDICTABLE>
 801130c:	10001894 	mulne	r0, r4, r8
 8011310:	08013194 	stmdaeq	r1, {r2, r4, r7, r8, ip, sp}
 8011314:	080131f5 	stmdaeq	r1, {r0, r2, r4, r5, r6, r7, r8, ip, sp}
 8011318:	08013079 	stmdaeq	r1, {r0, r3, r4, r5, r6, ip, sp}
 801131c:	100018ac 	andne	r1, r0, ip, lsr #17

08011320 <uart_set_baudrate>:
 8011320:	b5f0      	push	{r4, r5, r6, r7, lr}
 8011322:	4c34      	ldr	r4, [pc, #208]	; (80113f4 <uart_set_baudrate+0xd4>)
 8011324:	4605      	mov	r5, r0
 8011326:	460f      	mov	r7, r1
 8011328:	cc0f      	ldmia	r4!, {r0, r1, r2, r3}
 801132a:	b095      	sub	sp, #84	; 0x54
 801132c:	466e      	mov	r6, sp
 801132e:	c60f      	stmia	r6!, {r0, r1, r2, r3}
 8011330:	cc0f      	ldmia	r4!, {r0, r1, r2, r3}
 8011332:	c60f      	stmia	r6!, {r0, r1, r2, r3}
 8011334:	e894 0003 	ldmia.w	r4, {r0, r1}
 8011338:	3408      	adds	r4, #8
 801133a:	e886 0003 	stmia.w	r6, {r0, r1}
 801133e:	cc0f      	ldmia	r4!, {r0, r1, r2, r3}
 8011340:	ae0a      	add	r6, sp, #40	; 0x28
 8011342:	c60f      	stmia	r6!, {r0, r1, r2, r3}
 8011344:	cc0f      	ldmia	r4!, {r0, r1, r2, r3}
 8011346:	c60f      	stmia	r6!, {r0, r1, r2, r3}
 8011348:	e894 0003 	ldmia.w	r4, {r0, r1}
 801134c:	2300      	movs	r3, #0
 801134e:	636b      	str	r3, [r5, #52]	; 0x34
 8011350:	656b      	str	r3, [r5, #84]	; 0x54
 8011352:	65ab      	str	r3, [r5, #88]	; 0x58
 8011354:	e886 0003 	stmia.w	r6, {r0, r1}
 8011358:	f001 fdda 	bl	8012f10 <__is_clk_use_lfosc_veneer>
 801135c:	b128      	cbz	r0, 801136a <uart_set_baudrate+0x4a>
 801135e:	f000 fe61 	bl	8012024 <clock_get_freq_lfosc>
 8011362:	f44f 737a 	mov.w	r3, #1000	; 0x3e8
 8011366:	4358      	muls	r0, r3
 8011368:	e000      	b.n	801136c <uart_set_baudrate+0x4c>
 801136a:	4823      	ldr	r0, [pc, #140]	; (80113f8 <uart_set_baudrate+0xd8>)
 801136c:	220a      	movs	r2, #10
 801136e:	0239      	lsls	r1, r7, #8
 8011370:	fb02 f400 	mul.w	r4, r2, r0
 8011374:	fbb0 f3f1 	udiv	r3, r0, r1
 8011378:	fbb4 f1f1 	udiv	r1, r4, r1
 801137c:	fbb1 f6f2 	udiv	r6, r1, r2
 8011380:	fb02 1216 	mls	r2, r2, r6, r1
 8011384:	b902      	cbnz	r2, 8011388 <uart_set_baudrate+0x68>
 8011386:	b903      	cbnz	r3, 801138a <uart_set_baudrate+0x6a>
 8011388:	3301      	adds	r3, #1
 801138a:	fb07 f103 	mul.w	r1, r7, r3
 801138e:	fbb0 f2f1 	udiv	r2, r0, r1
 8011392:	f5b2 7f80 	cmp.w	r2, #256	; 0x100
 8011396:	4439      	add	r1, r7
 8011398:	d901      	bls.n	801139e <uart_set_baudrate+0x7e>
 801139a:	3301      	adds	r3, #1
 801139c:	e7f7      	b.n	801138e <uart_set_baudrate+0x6e>
 801139e:	fb07 f003 	mul.w	r0, r7, r3
 80113a2:	210a      	movs	r1, #10
 80113a4:	fbb4 f0f0 	udiv	r0, r4, r0
 80113a8:	fbb0 f4f1 	udiv	r4, r0, r1
 80113ac:	fb01 0014 	mls	r0, r1, r4, r0
 80113b0:	2103      	movs	r1, #3
 80113b2:	6269      	str	r1, [r5, #36]	; 0x24
 80113b4:	68e9      	ldr	r1, [r5, #12]
 80113b6:	1e54      	subs	r4, r2, #1
 80113b8:	f041 0680 	orr.w	r6, r1, #128	; 0x80
 80113bc:	3a02      	subs	r2, #2
 80113be:	60ee      	str	r6, [r5, #12]
 80113c0:	0852      	lsrs	r2, r2, #1
 80113c2:	b2de      	uxtb	r6, r3
 80113c4:	f3c3 2307 	ubfx	r3, r3, #8, #8
 80113c8:	602e      	str	r6, [r5, #0]
 80113ca:	606b      	str	r3, [r5, #4]
 80113cc:	60e9      	str	r1, [r5, #12]
 80113ce:	62ac      	str	r4, [r5, #40]	; 0x28
 80113d0:	62ea      	str	r2, [r5, #44]	; 0x2c
 80113d2:	aa14      	add	r2, sp, #80	; 0x50
 80113d4:	eb02 0380 	add.w	r3, r2, r0, lsl #2
 80113d8:	f853 2c50 	ldr.w	r2, [r3, #-80]
 80113dc:	f853 3c28 	ldr.w	r3, [r3, #-40]
 80113e0:	656a      	str	r2, [r5, #84]	; 0x54
 80113e2:	65ab      	str	r3, [r5, #88]	; 0x58
 80113e4:	4b05      	ldr	r3, [pc, #20]	; (80113fc <uart_set_baudrate+0xdc>)
 80113e6:	429f      	cmp	r7, r3
 80113e8:	bf84      	itt	hi
 80113ea:	2312      	movhi	r3, #18
 80113ec:	63eb      	strhi	r3, [r5, #60]	; 0x3c
 80113ee:	b015      	add	sp, #84	; 0x54
 80113f0:	bdf0      	pop	{r4, r5, r6, r7, pc}
 80113f2:	bf00      	nop
 80113f4:	08012f90 	stmdaeq	r1, {r4, r7, r8, r9, sl, fp, sp}
 80113f8:	018cba80 	orreq	fp, ip, r0, lsl #21
 80113fc:	002dc6bf 			; <UNDEFINED> instruction: 0x002dc6bf

08011400 <uart_set_format>:
 8011400:	b530      	push	{r4, r5, lr}
 8011402:	68c5      	ldr	r5, [r0, #12]
 8011404:	2480      	movs	r4, #128	; 0x80
 8011406:	60c4      	str	r4, [r0, #12]
 8011408:	2902      	cmp	r1, #2
 801140a:	f64f 74fc 	movw	r4, #65532	; 0xfffc
 801140e:	ea05 0404 	and.w	r4, r5, r4
 8011412:	d006      	beq.n	8011422 <uart_set_format+0x22>
 8011414:	2903      	cmp	r1, #3
 8011416:	d007      	beq.n	8011428 <uart_set_format+0x28>
 8011418:	2901      	cmp	r1, #1
 801141a:	d107      	bne.n	801142c <uart_set_format+0x2c>
 801141c:	f044 0401 	orr.w	r4, r4, #1
 8011420:	e004      	b.n	801142c <uart_set_format+0x2c>
 8011422:	f044 0402 	orr.w	r4, r4, #2
 8011426:	e001      	b.n	801142c <uart_set_format+0x2c>
 8011428:	f044 0403 	orr.w	r4, r4, #3
 801142c:	f024 0404 	bic.w	r4, r4, #4
 8011430:	b2a4      	uxth	r4, r4
 8011432:	2a01      	cmp	r2, #1
 8011434:	bf08      	it	eq
 8011436:	f044 0404 	orreq.w	r4, r4, #4
 801143a:	f024 0438 	bic.w	r4, r4, #56	; 0x38
 801143e:	b2a4      	uxth	r4, r4
 8011440:	2b02      	cmp	r3, #2
 8011442:	bf08      	it	eq
 8011444:	f044 0410 	orreq.w	r4, r4, #16
 8011448:	60c4      	str	r4, [r0, #12]
 801144a:	bd30      	pop	{r4, r5, pc}

0801144c <uart_set_fifo>:
 801144c:	22bf      	movs	r2, #191	; 0xbf
 801144e:	68c3      	ldr	r3, [r0, #12]
 8011450:	60c2      	str	r2, [r0, #12]
 8011452:	6882      	ldr	r2, [r0, #8]
 8011454:	b292      	uxth	r2, r2
 8011456:	f042 0210 	orr.w	r2, r2, #16
 801145a:	6082      	str	r2, [r0, #8]
 801145c:	2200      	movs	r2, #0
 801145e:	60c2      	str	r2, [r0, #12]
 8011460:	b29b      	uxth	r3, r3
 8011462:	2287      	movs	r2, #135	; 0x87
 8011464:	6082      	str	r2, [r0, #8]
 8011466:	60c3      	str	r3, [r0, #12]
 8011468:	4770      	bx	lr

0801146a <uart_unmask_receive_interrupt>:
 801146a:	68c2      	ldr	r2, [r0, #12]
 801146c:	68c3      	ldr	r3, [r0, #12]
 801146e:	f023 0380 	bic.w	r3, r3, #128	; 0x80
 8011472:	60c3      	str	r3, [r0, #12]
 8011474:	6843      	ldr	r3, [r0, #4]
 8011476:	b29b      	uxth	r3, r3
 8011478:	f043 0305 	orr.w	r3, r3, #5
 801147c:	6043      	str	r3, [r0, #4]
 801147e:	68c3      	ldr	r3, [r0, #12]
 8011480:	4013      	ands	r3, r2
 8011482:	b29b      	uxth	r3, r3
 8011484:	60c3      	str	r3, [r0, #12]
 8011486:	4770      	bx	lr

08011488 <uart_purge_fifo>:
 8011488:	2900      	cmp	r1, #0
 801148a:	bf0c      	ite	eq
 801148c:	2395      	moveq	r3, #149	; 0x95
 801148e:	2393      	movne	r3, #147	; 0x93
 8011490:	6083      	str	r3, [r0, #8]
 8011492:	4770      	bx	lr

08011494 <uart_query_interrupt_type>:
 8011494:	6883      	ldr	r3, [r0, #8]
 8011496:	b29b      	uxth	r3, r3
 8011498:	07da      	lsls	r2, r3, #31
 801149a:	d411      	bmi.n	80114c0 <uart_query_interrupt_type+0x2c>
 801149c:	f003 033f 	and.w	r3, r3, #63	; 0x3f
 80114a0:	2b06      	cmp	r3, #6
 80114a2:	d006      	beq.n	80114b2 <uart_query_interrupt_type+0x1e>
 80114a4:	2b0c      	cmp	r3, #12
 80114a6:	d00d      	beq.n	80114c4 <uart_query_interrupt_type+0x30>
 80114a8:	2b02      	cmp	r3, #2
 80114aa:	bf0c      	ite	eq
 80114ac:	2005      	moveq	r0, #5
 80114ae:	2000      	movne	r0, #0
 80114b0:	4770      	bx	lr
 80114b2:	6943      	ldr	r3, [r0, #20]
 80114b4:	f013 0f10 	tst.w	r3, #16
 80114b8:	bf0c      	ite	eq
 80114ba:	2001      	moveq	r0, #1
 80114bc:	2003      	movne	r0, #3
 80114be:	4770      	bx	lr
 80114c0:	2000      	movs	r0, #0
 80114c2:	4770      	bx	lr
 80114c4:	2002      	movs	r0, #2
 80114c6:	4770      	bx	lr

080114c8 <uart_verify_error>:
 80114c8:	6943      	ldr	r3, [r0, #20]
 80114ca:	f013 0f0e 	tst.w	r3, #14
 80114ce:	bf14      	ite	ne
 80114d0:	2000      	movne	r0, #0
 80114d2:	f06f 0000 	mvneq.w	r0, #0
 80114d6:	4770      	bx	lr

080114d8 <uart_clear_timeout_interrupt>:
 80114d8:	6cc3      	ldr	r3, [r0, #76]	; 0x4c
 80114da:	4770      	bx	lr

080114dc <uart_reset_default_value>:
 80114dc:	22bf      	movs	r2, #191	; 0xbf
 80114de:	2310      	movs	r3, #16
 80114e0:	60c2      	str	r2, [r0, #12]
 80114e2:	2180      	movs	r1, #128	; 0x80
 80114e4:	6083      	str	r3, [r0, #8]
 80114e6:	2300      	movs	r3, #0
 80114e8:	6103      	str	r3, [r0, #16]
 80114ea:	6183      	str	r3, [r0, #24]
 80114ec:	60c1      	str	r1, [r0, #12]
 80114ee:	6003      	str	r3, [r0, #0]
 80114f0:	6043      	str	r3, [r0, #4]
 80114f2:	60c3      	str	r3, [r0, #12]
 80114f4:	6043      	str	r3, [r0, #4]
 80114f6:	6083      	str	r3, [r0, #8]
 80114f8:	60c2      	str	r2, [r0, #12]
 80114fa:	6083      	str	r3, [r0, #8]
 80114fc:	60c3      	str	r3, [r0, #12]
 80114fe:	6103      	str	r3, [r0, #16]
 8011500:	61c3      	str	r3, [r0, #28]
 8011502:	6203      	str	r3, [r0, #32]
 8011504:	6243      	str	r3, [r0, #36]	; 0x24
 8011506:	6283      	str	r3, [r0, #40]	; 0x28
 8011508:	62c3      	str	r3, [r0, #44]	; 0x2c
 801150a:	6343      	str	r3, [r0, #52]	; 0x34
 801150c:	6383      	str	r3, [r0, #56]	; 0x38
 801150e:	63c3      	str	r3, [r0, #60]	; 0x3c
 8011510:	6403      	str	r3, [r0, #64]	; 0x40
 8011512:	6443      	str	r3, [r0, #68]	; 0x44
 8011514:	6483      	str	r3, [r0, #72]	; 0x48
 8011516:	64c3      	str	r3, [r0, #76]	; 0x4c
 8011518:	6343      	str	r3, [r0, #52]	; 0x34
 801151a:	6543      	str	r3, [r0, #84]	; 0x54
 801151c:	6583      	str	r3, [r0, #88]	; 0x58
 801151e:	4770      	bx	lr

08011520 <uart_port_to_dma_channel>:
 8011520:	2803      	cmp	r0, #3
 8011522:	d817      	bhi.n	8011554 <uart_port_to_dma_channel+0x34>
 8011524:	e8df f000 	tbb	[pc, r0]
 8011528:	110c0702 	tstne	ip, r2, lsl #14
 801152c:	2900      	cmp	r1, #0
 801152e:	bf0c      	ite	eq
 8011530:	200e      	moveq	r0, #14
 8011532:	200f      	movne	r0, #15
 8011534:	4770      	bx	lr
 8011536:	2900      	cmp	r1, #0
 8011538:	bf0c      	ite	eq
 801153a:	2008      	moveq	r0, #8
 801153c:	2009      	movne	r0, #9
 801153e:	4770      	bx	lr
 8011540:	2900      	cmp	r1, #0
 8011542:	bf0c      	ite	eq
 8011544:	200a      	moveq	r0, #10
 8011546:	200b      	movne	r0, #11
 8011548:	4770      	bx	lr
 801154a:	2900      	cmp	r1, #0
 801154c:	bf0c      	ite	eq
 801154e:	200c      	moveq	r0, #12
 8011550:	200d      	movne	r0, #13
 8011552:	4770      	bx	lr
 8011554:	200f      	movs	r0, #15
 8011556:	4770      	bx	lr

08011558 <uart_dma_channel_to_callback_data>:
 8011558:	3808      	subs	r0, #8
 801155a:	2807      	cmp	r0, #7
 801155c:	d81e      	bhi.n	801159c <uart_dma_channel_to_callback_data+0x44>
 801155e:	e8df f000 	tbb	[pc, r0]
 8011562:	0a150811 	beq	85535ae <Image$$EPO$$ZI$$Base+0x1635ae>
 8011566:	040e0c19 	streq	r0, [lr], #-3097	; 0xc19
 801156a:	2301      	movs	r3, #1
 801156c:	700b      	strb	r3, [r1, #0]
 801156e:	2300      	movs	r3, #0
 8011570:	e013      	b.n	801159a <uart_dma_channel_to_callback_data+0x42>
 8011572:	2301      	movs	r3, #1
 8011574:	e004      	b.n	8011580 <uart_dma_channel_to_callback_data+0x28>
 8011576:	2301      	movs	r3, #1
 8011578:	e009      	b.n	801158e <uart_dma_channel_to_callback_data+0x36>
 801157a:	2301      	movs	r3, #1
 801157c:	e00b      	b.n	8011596 <uart_dma_channel_to_callback_data+0x3e>
 801157e:	2300      	movs	r3, #0
 8011580:	700b      	strb	r3, [r1, #0]
 8011582:	e00a      	b.n	801159a <uart_dma_channel_to_callback_data+0x42>
 8011584:	2300      	movs	r3, #0
 8011586:	700b      	strb	r3, [r1, #0]
 8011588:	2301      	movs	r3, #1
 801158a:	e006      	b.n	801159a <uart_dma_channel_to_callback_data+0x42>
 801158c:	2300      	movs	r3, #0
 801158e:	700b      	strb	r3, [r1, #0]
 8011590:	2302      	movs	r3, #2
 8011592:	e002      	b.n	801159a <uart_dma_channel_to_callback_data+0x42>
 8011594:	2300      	movs	r3, #0
 8011596:	700b      	strb	r3, [r1, #0]
 8011598:	2303      	movs	r3, #3
 801159a:	704b      	strb	r3, [r1, #1]
 801159c:	4770      	bx	lr

0801159e <uart_enable_dma>:
 801159e:	2303      	movs	r3, #3
 80115a0:	64c3      	str	r3, [r0, #76]	; 0x4c
 80115a2:	4770      	bx	lr

080115a4 <uart_interrupt_handler>:
 80115a4:	381e      	subs	r0, #30
 80115a6:	b2c0      	uxtb	r0, r0
 80115a8:	2802      	cmp	r0, #2
 80115aa:	b538      	push	{r3, r4, r5, lr}
 80115ac:	bf96      	itet	ls
 80115ae:	4b14      	ldrls	r3, [pc, #80]	; (8011600 <uart_interrupt_handler+0x5c>)
 80115b0:	2400      	movhi	r4, #0
 80115b2:	5c1c      	ldrbls	r4, [r3, r0]
 80115b4:	4b13      	ldr	r3, [pc, #76]	; (8011604 <uart_interrupt_handler+0x60>)
 80115b6:	f853 5024 	ldr.w	r5, [r3, r4, lsl #2]
 80115ba:	4628      	mov	r0, r5
 80115bc:	f7ff ff6a 	bl	8011494 <uart_query_interrupt_type>
 80115c0:	2804      	cmp	r0, #4
 80115c2:	d815      	bhi.n	80115f0 <uart_interrupt_handler+0x4c>
 80115c4:	e8df f000 	tbb	[pc, r0]
 80115c8:	0e03091a 	mcreq	9, 0, r0, cr3, cr10, {0}
 80115cc:	4620001a 			; <UNDEFINED> instruction: 0x4620001a
 80115d0:	2101      	movs	r1, #1
 80115d2:	e8bd 4038 	ldmia.w	sp!, {r3, r4, r5, lr}
 80115d6:	f7ff bb2f 	b.w	8010c38 <uart_receive_handler>
 80115da:	4620      	mov	r0, r4
 80115dc:	e8bd 4038 	ldmia.w	sp!, {r3, r4, r5, lr}
 80115e0:	f7ff bbe0 	b.w	8010da4 <uart_error_handler>
 80115e4:	4628      	mov	r0, r5
 80115e6:	2101      	movs	r1, #1
 80115e8:	e8bd 4038 	ldmia.w	sp!, {r3, r4, r5, lr}
 80115ec:	f7ff bf4c 	b.w	8011488 <uart_purge_fifo>
 80115f0:	4805      	ldr	r0, [pc, #20]	; (8011608 <uart_interrupt_handler+0x64>)
 80115f2:	4a06      	ldr	r2, [pc, #24]	; (801160c <uart_interrupt_handler+0x68>)
 80115f4:	4b06      	ldr	r3, [pc, #24]	; (8011610 <uart_interrupt_handler+0x6c>)
 80115f6:	21f6      	movs	r1, #246	; 0xf6
 80115f8:	f000 fd50 	bl	801209c <__assert_func>
 80115fc:	bd38      	pop	{r3, r4, r5, pc}
 80115fe:	bf00      	nop
 8011600:	08013304 	stmdaeq	r1, {r2, r8, r9, ip, sp}
 8011604:	080132f4 	stmdaeq	r1, {r2, r4, r5, r6, r7, r9, ip, sp}
 8011608:	08013294 	stmdaeq	r1, {r2, r4, r7, r9, ip, sp}
 801160c:	080132db 	stmdaeq	r1, {r0, r1, r3, r4, r6, r7, r9, ip, sp}
 8011610:	08013079 	stmdaeq	r1, {r0, r3, r4, r5, r6, ip, sp}

08011614 <hal_nvic_init>:
 8011614:	4a0a      	ldr	r2, [pc, #40]	; (8011640 <hal_nvic_init+0x2c>)
 8011616:	6813      	ldr	r3, [r2, #0]
 8011618:	4611      	mov	r1, r2
 801161a:	b97b      	cbnz	r3, 801163c <hal_nvic_init+0x28>
 801161c:	4a09      	ldr	r2, [pc, #36]	; (8011644 <hal_nvic_init+0x30>)
 801161e:	f852 0023 	ldr.w	r0, [r2, r3, lsl #2]
 8011622:	f103 4260 	add.w	r2, r3, #3758096384	; 0xe0000000
 8011626:	0080      	lsls	r0, r0, #2
 8011628:	f502 4261 	add.w	r2, r2, #57600	; 0xe100
 801162c:	3301      	adds	r3, #1
 801162e:	b2c0      	uxtb	r0, r0
 8011630:	2b40      	cmp	r3, #64	; 0x40
 8011632:	f882 0300 	strb.w	r0, [r2, #768]	; 0x300
 8011636:	d1f1      	bne.n	801161c <hal_nvic_init+0x8>
 8011638:	2301      	movs	r3, #1
 801163a:	600b      	str	r3, [r1, #0]
 801163c:	2000      	movs	r0, #0
 801163e:	4770      	bx	lr
 8011640:	1000191c 	andne	r1, r0, ip, lsl r9
 8011644:	08013314 	stmdaeq	r1, {r2, r4, r8, r9, ip, sp}

08011648 <hal_nvic_enable_irq>:
 8011648:	b2c3      	uxtb	r3, r0
 801164a:	2b3f      	cmp	r3, #63	; 0x3f
 801164c:	d80a      	bhi.n	8011664 <hal_nvic_enable_irq+0x1c>
 801164e:	2201      	movs	r2, #1
 8011650:	f003 031f 	and.w	r3, r3, #31
 8011654:	0940      	lsrs	r0, r0, #5
 8011656:	fa02 f303 	lsl.w	r3, r2, r3
 801165a:	4a04      	ldr	r2, [pc, #16]	; (801166c <hal_nvic_enable_irq+0x24>)
 801165c:	f842 3020 	str.w	r3, [r2, r0, lsl #2]
 8011660:	2000      	movs	r0, #0
 8011662:	e000      	b.n	8011666 <hal_nvic_enable_irq+0x1e>
 8011664:	20fd      	movs	r0, #253	; 0xfd
 8011666:	b240      	sxtb	r0, r0
 8011668:	4770      	bx	lr
 801166a:	bf00      	nop
 801166c:	e000e100 	and	lr, r0, r0, lsl #2

08011670 <hal_nvic_register_isr_handler>:
 8011670:	b570      	push	{r4, r5, r6, lr}
 8011672:	b2c6      	uxtb	r6, r0
 8011674:	2e3f      	cmp	r6, #63	; 0x3f
 8011676:	4604      	mov	r4, r0
 8011678:	460d      	mov	r5, r1
 801167a:	d817      	bhi.n	80116ac <hal_nvic_register_isr_handler+0x3c>
 801167c:	b1b1      	cbz	r1, 80116ac <hal_nvic_register_isr_handler+0x3c>
 801167e:	f001 fc57 	bl	8012f30 <__save_and_set_interrupt_mask_veneer>
 8011682:	f006 061f 	and.w	r6, r6, #31
 8011686:	0962      	lsrs	r2, r4, #5
 8011688:	2301      	movs	r3, #1
 801168a:	fa03 f606 	lsl.w	r6, r3, r6
 801168e:	3260      	adds	r2, #96	; 0x60
 8011690:	4b08      	ldr	r3, [pc, #32]	; (80116b4 <hal_nvic_register_isr_handler+0x44>)
 8011692:	f843 6022 	str.w	r6, [r3, r2, lsl #2]
 8011696:	4b08      	ldr	r3, [pc, #32]	; (80116b8 <hal_nvic_register_isr_handler+0x48>)
 8011698:	f843 5034 	str.w	r5, [r3, r4, lsl #3]
 801169c:	eb03 04c4 	add.w	r4, r3, r4, lsl #3
 80116a0:	2500      	movs	r5, #0
 80116a2:	6065      	str	r5, [r4, #4]
 80116a4:	f001 fc4c 	bl	8012f40 <__restore_interrupt_mask_veneer>
 80116a8:	4628      	mov	r0, r5
 80116aa:	e000      	b.n	80116ae <hal_nvic_register_isr_handler+0x3e>
 80116ac:	20fe      	movs	r0, #254	; 0xfe
 80116ae:	b240      	sxtb	r0, r0
 80116b0:	bd70      	pop	{r4, r5, r6, pc}
 80116b2:	bf00      	nop
 80116b4:	e000e100 	and	lr, r0, r0, lsl #2
 80116b8:	10001920 	andne	r1, r0, r0, lsr #18

080116bc <hal_nvic_save_and_set_interrupt_mask>:
 80116bc:	b510      	push	{r4, lr}
 80116be:	4604      	mov	r4, r0
 80116c0:	f001 fc36 	bl	8012f30 <__save_and_set_interrupt_mask_veneer>
 80116c4:	6020      	str	r0, [r4, #0]
 80116c6:	2000      	movs	r0, #0
 80116c8:	bd10      	pop	{r4, pc}

080116ca <hal_nvic_restore_interrupt_mask>:
 80116ca:	b508      	push	{r3, lr}
 80116cc:	f001 fc38 	bl	8012f40 <__restore_interrupt_mask_veneer>
 80116d0:	2000      	movs	r0, #0
 80116d2:	bd08      	pop	{r3, pc}

080116d4 <SF_DAL_Init_MXIC>:
 80116d4:	f8d1 30ac 	ldr.w	r3, [r1, #172]	; 0xac
 80116d8:	2002      	movs	r0, #2
 80116da:	b510      	push	{r4, lr}
 80116dc:	7058      	strb	r0, [r3, #1]
 80116de:	2008      	movs	r0, #8
 80116e0:	7098      	strb	r0, [r3, #2]
 80116e2:	2004      	movs	r0, #4
 80116e4:	70d8      	strb	r0, [r3, #3]
 80116e6:	203c      	movs	r0, #60	; 0x3c
 80116e8:	7118      	strb	r0, [r3, #4]
 80116ea:	2080      	movs	r0, #128	; 0x80
 80116ec:	7158      	strb	r0, [r3, #5]
 80116ee:	2201      	movs	r2, #1
 80116f0:	2060      	movs	r0, #96	; 0x60
 80116f2:	701a      	strb	r2, [r3, #0]
 80116f4:	71d8      	strb	r0, [r3, #7]
 80116f6:	f8d1 00b0 	ldr.w	r0, [r1, #176]	; 0xb0
 80116fa:	232b      	movs	r3, #43	; 0x2b
 80116fc:	73c3      	strb	r3, [r0, #15]
 80116fe:	f8d1 00b0 	ldr.w	r0, [r1, #176]	; 0xb0
 8011702:	7343      	strb	r3, [r0, #13]
 8011704:	f8d1 00b0 	ldr.w	r0, [r1, #176]	; 0xb0
 8011708:	242f      	movs	r4, #47	; 0x2f
 801170a:	7384      	strb	r4, [r0, #14]
 801170c:	f8d1 00b0 	ldr.w	r0, [r1, #176]	; 0xb0
 8011710:	2405      	movs	r4, #5
 8011712:	72c4      	strb	r4, [r0, #11]
 8011714:	f8d1 00b0 	ldr.w	r0, [r1, #176]	; 0xb0
 8011718:	7302      	strb	r2, [r0, #12]
 801171a:	f8d1 20b0 	ldr.w	r2, [r1, #176]	; 0xb0
 801171e:	7453      	strb	r3, [r2, #17]
 8011720:	2316      	movs	r3, #22
 8011722:	f881 30c0 	strb.w	r3, [r1, #192]	; 0xc0
 8011726:	f8b1 30c2 	ldrh.w	r3, [r1, #194]	; 0xc2
 801172a:	f5b3 5fc1 	cmp.w	r3, #6176	; 0x1820
 801172e:	d107      	bne.n	8011740 <SF_DAL_Init_MXIC+0x6c>
 8011730:	f8d1 30b0 	ldr.w	r3, [r1, #176]	; 0xb0
 8011734:	2275      	movs	r2, #117	; 0x75
 8011736:	709a      	strb	r2, [r3, #2]
 8011738:	f8d1 30b0 	ldr.w	r3, [r1, #176]	; 0xb0
 801173c:	227a      	movs	r2, #122	; 0x7a
 801173e:	70da      	strb	r2, [r3, #3]
 8011740:	f8b1 30c2 	ldrh.w	r3, [r1, #194]	; 0xc2
 8011744:	f5b3 5fb1 	cmp.w	r3, #5664	; 0x1620
 8011748:	d107      	bne.n	801175a <SF_DAL_Init_MXIC+0x86>
 801174a:	f8d1 30b0 	ldr.w	r3, [r1, #176]	; 0xb0
 801174e:	2275      	movs	r2, #117	; 0x75
 8011750:	709a      	strb	r2, [r3, #2]
 8011752:	f8d1 30b0 	ldr.w	r3, [r1, #176]	; 0xb0
 8011756:	227a      	movs	r2, #122	; 0x7a
 8011758:	70da      	strb	r2, [r3, #3]
 801175a:	4b02      	ldr	r3, [pc, #8]	; (8011764 <SF_DAL_Init_MXIC+0x90>)
 801175c:	f8c1 30d4 	str.w	r3, [r1, #212]	; 0xd4
 8011760:	2000      	movs	r0, #0
 8011762:	bd10      	pop	{r4, pc}
 8011764:	000010ed 	andeq	r1, r0, sp, ror #1

08011768 <SF_DAL_Init_WINBOND>:
 8011768:	f8d1 30ac 	ldr.w	r3, [r1, #172]	; 0xac
 801176c:	2202      	movs	r2, #2
 801176e:	b510      	push	{r4, lr}
 8011770:	2001      	movs	r0, #1
 8011772:	705a      	strb	r2, [r3, #1]
 8011774:	243c      	movs	r4, #60	; 0x3c
 8011776:	2280      	movs	r2, #128	; 0x80
 8011778:	709a      	strb	r2, [r3, #2]
 801177a:	70da      	strb	r2, [r3, #3]
 801177c:	7018      	strb	r0, [r3, #0]
 801177e:	715a      	strb	r2, [r3, #5]
 8011780:	711c      	strb	r4, [r3, #4]
 8011782:	f8d1 30b0 	ldr.w	r3, [r1, #176]	; 0xb0
 8011786:	229f      	movs	r2, #159	; 0x9f
 8011788:	729a      	strb	r2, [r3, #10]
 801178a:	f8d1 20b0 	ldr.w	r2, [r1, #176]	; 0xb0
 801178e:	2335      	movs	r3, #53	; 0x35
 8011790:	73d3      	strb	r3, [r2, #15]
 8011792:	f8d1 20b0 	ldr.w	r2, [r1, #176]	; 0xb0
 8011796:	7353      	strb	r3, [r2, #13]
 8011798:	f8d1 30b0 	ldr.w	r3, [r1, #176]	; 0xb0
 801179c:	2205      	movs	r2, #5
 801179e:	72da      	strb	r2, [r3, #11]
 80117a0:	f8d1 30b0 	ldr.w	r3, [r1, #176]	; 0xb0
 80117a4:	7318      	strb	r0, [r3, #12]
 80117a6:	f8d1 30b0 	ldr.w	r3, [r1, #176]	; 0xb0
 80117aa:	2275      	movs	r2, #117	; 0x75
 80117ac:	709a      	strb	r2, [r3, #2]
 80117ae:	f8d1 30b0 	ldr.w	r3, [r1, #176]	; 0xb0
 80117b2:	227a      	movs	r2, #122	; 0x7a
 80117b4:	70da      	strb	r2, [r3, #3]
 80117b6:	2316      	movs	r3, #22
 80117b8:	f881 30c0 	strb.w	r3, [r1, #192]	; 0xc0
 80117bc:	4b02      	ldr	r3, [pc, #8]	; (80117c8 <SF_DAL_Init_WINBOND+0x60>)
 80117be:	f8c1 30d4 	str.w	r3, [r1, #212]	; 0xd4
 80117c2:	2000      	movs	r0, #0
 80117c4:	bd10      	pop	{r4, pc}
 80117c6:	bf00      	nop
 80117c8:	0000049d 	muleq	r0, sp, r4

080117cc <SF_DAL_Init_Common>:
 80117cc:	b538      	push	{r3, r4, r5, lr}
 80117ce:	4b30      	ldr	r3, [pc, #192]	; (8011890 <SF_DAL_Init_Common+0xc4>)
 80117d0:	6003      	str	r3, [r0, #0]
 80117d2:	4b30      	ldr	r3, [pc, #192]	; (8011894 <SF_DAL_Init_Common+0xc8>)
 80117d4:	6043      	str	r3, [r0, #4]
 80117d6:	4b30      	ldr	r3, [pc, #192]	; (8011898 <SF_DAL_Init_Common+0xcc>)
 80117d8:	6083      	str	r3, [r0, #8]
 80117da:	4b30      	ldr	r3, [pc, #192]	; (801189c <SF_DAL_Init_Common+0xd0>)
 80117dc:	60c3      	str	r3, [r0, #12]
 80117de:	4b30      	ldr	r3, [pc, #192]	; (80118a0 <SF_DAL_Init_Common+0xd4>)
 80117e0:	6103      	str	r3, [r0, #16]
 80117e2:	4b30      	ldr	r3, [pc, #192]	; (80118a4 <SF_DAL_Init_Common+0xd8>)
 80117e4:	6143      	str	r3, [r0, #20]
 80117e6:	4b30      	ldr	r3, [pc, #192]	; (80118a8 <SF_DAL_Init_Common+0xdc>)
 80117e8:	6183      	str	r3, [r0, #24]
 80117ea:	4b30      	ldr	r3, [pc, #192]	; (80118ac <SF_DAL_Init_Common+0xe0>)
 80117ec:	61c3      	str	r3, [r0, #28]
 80117ee:	4b30      	ldr	r3, [pc, #192]	; (80118b0 <SF_DAL_Init_Common+0xe4>)
 80117f0:	6203      	str	r3, [r0, #32]
 80117f2:	4b30      	ldr	r3, [pc, #192]	; (80118b4 <SF_DAL_Init_Common+0xe8>)
 80117f4:	6303      	str	r3, [r0, #48]	; 0x30
 80117f6:	2500      	movs	r5, #0
 80117f8:	4b2f      	ldr	r3, [pc, #188]	; (80118b8 <SF_DAL_Init_Common+0xec>)
 80117fa:	6383      	str	r3, [r0, #56]	; 0x38
 80117fc:	6245      	str	r5, [r0, #36]	; 0x24
 80117fe:	6285      	str	r5, [r0, #40]	; 0x28
 8011800:	62c5      	str	r5, [r0, #44]	; 0x2c
 8011802:	6345      	str	r5, [r0, #52]	; 0x34
 8011804:	460c      	mov	r4, r1
 8011806:	f000 f93b 	bl	8011a80 <custom_get_NORFLASH_Size>
 801180a:	f1b0 7f80 	cmp.w	r0, #16777216	; 0x1000000
 801180e:	bf8c      	ite	hi
 8011810:	2304      	movhi	r3, #4
 8011812:	2303      	movls	r3, #3
 8011814:	f884 30c5 	strb.w	r3, [r4, #197]	; 0xc5
 8011818:	f8d4 30b0 	ldr.w	r3, [r4, #176]	; 0xb0
 801181c:	745d      	strb	r5, [r3, #17]
 801181e:	f8d4 30b0 	ldr.w	r3, [r4, #176]	; 0xb0
 8011822:	22af      	movs	r2, #175	; 0xaf
 8011824:	729a      	strb	r2, [r3, #10]
 8011826:	f8d4 30b0 	ldr.w	r3, [r4, #176]	; 0xb0
 801182a:	229f      	movs	r2, #159	; 0x9f
 801182c:	725a      	strb	r2, [r3, #9]
 801182e:	f8d4 30b0 	ldr.w	r3, [r4, #176]	; 0xb0
 8011832:	2202      	movs	r2, #2
 8011834:	701a      	strb	r2, [r3, #0]
 8011836:	f8d4 30b0 	ldr.w	r3, [r4, #176]	; 0xb0
 801183a:	2220      	movs	r2, #32
 801183c:	719a      	strb	r2, [r3, #6]
 801183e:	f8d4 30b0 	ldr.w	r3, [r4, #176]	; 0xb0
 8011842:	2252      	movs	r2, #82	; 0x52
 8011844:	71da      	strb	r2, [r3, #7]
 8011846:	f8d4 30b0 	ldr.w	r3, [r4, #176]	; 0xb0
 801184a:	22d8      	movs	r2, #216	; 0xd8
 801184c:	721a      	strb	r2, [r3, #8]
 801184e:	f8d4 30b0 	ldr.w	r3, [r4, #176]	; 0xb0
 8011852:	22b0      	movs	r2, #176	; 0xb0
 8011854:	709a      	strb	r2, [r3, #2]
 8011856:	f8d4 30b0 	ldr.w	r3, [r4, #176]	; 0xb0
 801185a:	2230      	movs	r2, #48	; 0x30
 801185c:	70da      	strb	r2, [r3, #3]
 801185e:	f8d4 30b0 	ldr.w	r3, [r4, #176]	; 0xb0
 8011862:	2206      	movs	r2, #6
 8011864:	705a      	strb	r2, [r3, #1]
 8011866:	f8d4 30b0 	ldr.w	r3, [r4, #176]	; 0xb0
 801186a:	22b9      	movs	r2, #185	; 0xb9
 801186c:	749a      	strb	r2, [r3, #18]
 801186e:	f8d4 30b0 	ldr.w	r3, [r4, #176]	; 0xb0
 8011872:	22ab      	movs	r2, #171	; 0xab
 8011874:	74da      	strb	r2, [r3, #19]
 8011876:	f8d4 20b0 	ldr.w	r2, [r4, #176]	; 0xb0
 801187a:	2305      	movs	r3, #5
 801187c:	7413      	strb	r3, [r2, #16]
 801187e:	f8a4 50b8 	strh.w	r5, [r4, #184]	; 0xb8
 8011882:	60e5      	str	r5, [r4, #12]
 8011884:	60a5      	str	r5, [r4, #8]
 8011886:	7425      	strb	r5, [r4, #16]
 8011888:	f884 30c0 	strb.w	r3, [r4, #192]	; 0xc0
 801188c:	2000      	movs	r0, #0
 801188e:	bd38      	pop	{r3, r4, r5, pc}
 8011890:	00000c39 	andeq	r0, r0, r9, lsr ip
 8011894:	000009f1 	strdeq	r0, [r0], -r1
 8011898:	00001225 	andeq	r1, r0, r5, lsr #4
 801189c:	00000f43 	andeq	r0, r0, r3, asr #30
 80118a0:	00000db9 			; <UNDEFINED> instruction: 0x00000db9
 80118a4:	000004a1 	andeq	r0, r0, r1, lsr #9
 80118a8:	00000b61 	andeq	r0, r0, r1, ror #22
 80118ac:	00000a51 	andeq	r0, r0, r1, asr sl
 80118b0:	000008f9 	strdeq	r0, [r0], -r9
 80118b4:	000004a7 	andeq	r0, r0, r7, lsr #9
 80118b8:	08011915 	stmdaeq	r1, {r0, r2, r4, r8, fp, ip}

080118bc <SF_DAL_Init_Vendor>:
 80118bc:	b508      	push	{r3, lr}
 80118be:	f891 20c1 	ldrb.w	r2, [r1, #193]	; 0xc1
 80118c2:	2aef      	cmp	r2, #239	; 0xef
 80118c4:	d00d      	beq.n	80118e2 <SF_DAL_Init_Vendor+0x26>
 80118c6:	2af8      	cmp	r2, #248	; 0xf8
 80118c8:	d011      	beq.n	80118ee <SF_DAL_Init_Vendor+0x32>
 80118ca:	2ac2      	cmp	r2, #194	; 0xc2
 80118cc:	d113      	bne.n	80118f6 <SF_DAL_Init_Vendor+0x3a>
 80118ce:	f8d1 20c8 	ldr.w	r2, [r1, #200]	; 0xc8
 80118d2:	f042 0204 	orr.w	r2, r2, #4
 80118d6:	f8c1 20c8 	str.w	r2, [r1, #200]	; 0xc8
 80118da:	e8bd 4008 	ldmia.w	sp!, {r3, lr}
 80118de:	f7ff bef9 	b.w	80116d4 <SF_DAL_Init_MXIC>
 80118e2:	f8d1 20c8 	ldr.w	r2, [r1, #200]	; 0xc8
 80118e6:	f042 0202 	orr.w	r2, r2, #2
 80118ea:	f8c1 20c8 	str.w	r2, [r1, #200]	; 0xc8
 80118ee:	e8bd 4008 	ldmia.w	sp!, {r3, lr}
 80118f2:	f7ff bf39 	b.w	8011768 <SF_DAL_Init_WINBOND>
 80118f6:	f001 fb03 	bl	8012f00 <__Flash_ReturnReady_veneer>
 80118fa:	4803      	ldr	r0, [pc, #12]	; (8011908 <SF_DAL_Init_Vendor+0x4c>)
 80118fc:	4a03      	ldr	r2, [pc, #12]	; (801190c <SF_DAL_Init_Vendor+0x50>)
 80118fe:	4b04      	ldr	r3, [pc, #16]	; (8011910 <SF_DAL_Init_Vendor+0x54>)
 8011900:	f44f 6100 	mov.w	r1, #2048	; 0x800
 8011904:	f000 fbca 	bl	801209c <__assert_func>
 8011908:	080134e9 	stmdaeq	r1, {r0, r3, r5, r6, r7, sl, ip, sp}
 801190c:	08013554 	stmdaeq	r1, {r2, r4, r6, r8, sl, ip, sp}
 8011910:	08013079 	stmdaeq	r1, {r0, r3, r4, r5, r6, ip, sp}

08011914 <SF_DAL_IOCtrl>:
 8011914:	b510      	push	{r4, lr}
 8011916:	460c      	mov	r4, r1
 8011918:	b921      	cbnz	r1, 8011924 <SF_DAL_IOCtrl+0x10>
 801191a:	f8d0 30d4 	ldr.w	r3, [r0, #212]	; 0xd4
 801191e:	4798      	blx	r3
 8011920:	4620      	mov	r0, r4
 8011922:	bd10      	pop	{r4, pc}
 8011924:	2901      	cmp	r1, #1
 8011926:	d10b      	bne.n	8011940 <SF_DAL_IOCtrl+0x2c>
 8011928:	f890 20c1 	ldrb.w	r2, [r0, #193]	; 0xc1
 801192c:	2ac2      	cmp	r2, #194	; 0xc2
 801192e:	d110      	bne.n	8011952 <SF_DAL_IOCtrl+0x3e>
 8011930:	6943      	ldr	r3, [r0, #20]
 8011932:	681b      	ldr	r3, [r3, #0]
 8011934:	f5b3 2f80 	cmp.w	r3, #262144	; 0x40000
 8011938:	bf14      	ite	ne
 801193a:	2000      	movne	r0, #0
 801193c:	20c2      	moveq	r0, #194	; 0xc2
 801193e:	bd10      	pop	{r4, pc}
 8011940:	f001 fade 	bl	8012f00 <__Flash_ReturnReady_veneer>
 8011944:	4804      	ldr	r0, [pc, #16]	; (8011958 <SF_DAL_IOCtrl+0x44>)
 8011946:	4a05      	ldr	r2, [pc, #20]	; (801195c <SF_DAL_IOCtrl+0x48>)
 8011948:	4b05      	ldr	r3, [pc, #20]	; (8011960 <SF_DAL_IOCtrl+0x4c>)
 801194a:	f640 111a 	movw	r1, #2330	; 0x91a
 801194e:	f000 fba5 	bl	801209c <__assert_func>
 8011952:	2000      	movs	r0, #0
 8011954:	bd10      	pop	{r4, pc}
 8011956:	bf00      	nop
 8011958:	080134e9 	stmdaeq	r1, {r0, r3, r5, r6, r7, sl, ip, sp}
 801195c:	080134db 	stmdaeq	r1, {r0, r1, r3, r4, r6, r7, sl, ip, sp}
 8011960:	08013079 	stmdaeq	r1, {r0, r3, r4, r5, r6, ip, sp}

08011964 <SF_DAL_Init_Driver>:
 8011964:	b570      	push	{r4, r5, r6, lr}
 8011966:	460c      	mov	r4, r1
 8011968:	4606      	mov	r6, r0
 801196a:	b378      	cbz	r0, 80119cc <SF_DAL_Init_Driver+0x68>
 801196c:	b371      	cbz	r1, 80119cc <SF_DAL_Init_Driver+0x68>
 801196e:	f8d1 50b0 	ldr.w	r5, [r1, #176]	; 0xb0
 8011972:	b35d      	cbz	r5, 80119cc <SF_DAL_Init_Driver+0x68>
 8011974:	f8d1 50ac 	ldr.w	r5, [r1, #172]	; 0xac
 8011978:	b345      	cbz	r5, 80119cc <SF_DAL_Init_Driver+0x68>
 801197a:	604a      	str	r2, [r1, #4]
 801197c:	f8a1 30ba 	strh.w	r3, [r1, #186]	; 0xba
 8011980:	f7ff ff24 	bl	80117cc <SF_DAL_Init_Common>
 8011984:	f8d4 30b0 	ldr.w	r3, [r4, #176]	; 0xb0
 8011988:	22af      	movs	r2, #175	; 0xaf
 801198a:	f104 05c1 	add.w	r5, r4, #193	; 0xc1
 801198e:	729a      	strb	r2, [r3, #10]
 8011990:	4620      	mov	r0, r4
 8011992:	4629      	mov	r1, r5
 8011994:	f001 faf4 	bl	8012f80 <__SF_DAL_Dev_ReadID_veneer>
 8011998:	f894 30c1 	ldrb.w	r3, [r4, #193]	; 0xc1
 801199c:	3b01      	subs	r3, #1
 801199e:	b2db      	uxtb	r3, r3
 80119a0:	2bfd      	cmp	r3, #253	; 0xfd
 80119a2:	d908      	bls.n	80119b6 <SF_DAL_Init_Driver+0x52>
 80119a4:	f8d4 30b0 	ldr.w	r3, [r4, #176]	; 0xb0
 80119a8:	229f      	movs	r2, #159	; 0x9f
 80119aa:	729a      	strb	r2, [r3, #10]
 80119ac:	4620      	mov	r0, r4
 80119ae:	4629      	mov	r1, r5
 80119b0:	f001 fae6 	bl	8012f80 <__SF_DAL_Dev_ReadID_veneer>
 80119b4:	e004      	b.n	80119c0 <SF_DAL_Init_Driver+0x5c>
 80119b6:	4628      	mov	r0, r5
 80119b8:	f000 f80c 	bl	80119d4 <CMEM_CheckValidDeviceID>
 80119bc:	2800      	cmp	r0, #0
 80119be:	d0f1      	beq.n	80119a4 <SF_DAL_Init_Driver+0x40>
 80119c0:	4630      	mov	r0, r6
 80119c2:	4621      	mov	r1, r4
 80119c4:	e8bd 4070 	ldmia.w	sp!, {r4, r5, r6, lr}
 80119c8:	f7ff bf78 	b.w	80118bc <SF_DAL_Init_Vendor>
 80119cc:	f06f 0077 	mvn.w	r0, #119	; 0x77
 80119d0:	bd70      	pop	{r4, r5, r6, pc}
	...

080119d4 <CMEM_CheckValidDeviceID>:
 80119d4:	b570      	push	{r4, r5, r6, lr}
 80119d6:	2200      	movs	r2, #0
 80119d8:	4b0c      	ldr	r3, [pc, #48]	; (8011a0c <CMEM_CheckValidDeviceID+0x38>)
 80119da:	f103 0410 	add.w	r4, r3, #16
 80119de:	4413      	add	r3, r2
 80119e0:	4414      	add	r4, r2
 80119e2:	7c59      	ldrb	r1, [r3, #17]
 80119e4:	2300      	movs	r3, #0
 80119e6:	428b      	cmp	r3, r1
 80119e8:	da04      	bge.n	80119f4 <CMEM_CheckValidDeviceID+0x20>
 80119ea:	18e5      	adds	r5, r4, r3
 80119ec:	78ae      	ldrb	r6, [r5, #2]
 80119ee:	5cc5      	ldrb	r5, [r0, r3]
 80119f0:	42ae      	cmp	r6, r5
 80119f2:	d002      	beq.n	80119fa <CMEM_CheckValidDeviceID+0x26>
 80119f4:	428b      	cmp	r3, r1
 80119f6:	d102      	bne.n	80119fe <CMEM_CheckValidDeviceID+0x2a>
 80119f8:	e006      	b.n	8011a08 <CMEM_CheckValidDeviceID+0x34>
 80119fa:	3301      	adds	r3, #1
 80119fc:	e7f3      	b.n	80119e6 <CMEM_CheckValidDeviceID+0x12>
 80119fe:	320a      	adds	r2, #10
 8011a00:	2a32      	cmp	r2, #50	; 0x32
 8011a02:	d1e9      	bne.n	80119d8 <CMEM_CheckValidDeviceID+0x4>
 8011a04:	2000      	movs	r0, #0
 8011a06:	bd70      	pop	{r4, r5, r6, pc}
 8011a08:	2001      	movs	r0, #1
 8011a0a:	bd70      	pop	{r4, r5, r6, pc}
 8011a0c:	080135b0 	stmdaeq	r1, {r4, r5, r7, r8, sl, ip, sp}

08011a10 <CMEM_Index>:
 8011a10:	b573      	push	{r0, r1, r4, r5, r6, lr}
 8011a12:	4c15      	ldr	r4, [pc, #84]	; (8011a68 <CMEM_Index+0x58>)
 8011a14:	f9b4 0000 	ldrsh.w	r0, [r4]
 8011a18:	2800      	cmp	r0, #0
 8011a1a:	da22      	bge.n	8011a62 <CMEM_Index+0x52>
 8011a1c:	466a      	mov	r2, sp
 8011a1e:	2000      	movs	r0, #0
 8011a20:	f04f 6100 	mov.w	r1, #134217728	; 0x8000000
 8011a24:	f001 fa94 	bl	8012f50 <__NOR_ReadID_veneer>
 8011a28:	2200      	movs	r2, #0
 8011a2a:	4910      	ldr	r1, [pc, #64]	; (8011a6c <CMEM_Index+0x5c>)
 8011a2c:	230a      	movs	r3, #10
 8011a2e:	4353      	muls	r3, r2
 8011a30:	f101 0010 	add.w	r0, r1, #16
 8011a34:	4418      	add	r0, r3
 8011a36:	440b      	add	r3, r1
 8011a38:	7c59      	ldrb	r1, [r3, #17]
 8011a3a:	2300      	movs	r3, #0
 8011a3c:	428b      	cmp	r3, r1
 8011a3e:	da05      	bge.n	8011a4c <CMEM_Index+0x3c>
 8011a40:	18c5      	adds	r5, r0, r3
 8011a42:	78ae      	ldrb	r6, [r5, #2]
 8011a44:	f83d 5013 	ldrh.w	r5, [sp, r3, lsl #1]
 8011a48:	42ae      	cmp	r6, r5
 8011a4a:	d003      	beq.n	8011a54 <CMEM_Index+0x44>
 8011a4c:	428b      	cmp	r3, r1
 8011a4e:	d103      	bne.n	8011a58 <CMEM_Index+0x48>
 8011a50:	8022      	strh	r2, [r4, #0]
 8011a52:	e004      	b.n	8011a5e <CMEM_Index+0x4e>
 8011a54:	3301      	adds	r3, #1
 8011a56:	e7f1      	b.n	8011a3c <CMEM_Index+0x2c>
 8011a58:	3201      	adds	r2, #1
 8011a5a:	2a05      	cmp	r2, #5
 8011a5c:	d1e5      	bne.n	8011a2a <CMEM_Index+0x1a>
 8011a5e:	f9b4 0000 	ldrsh.w	r0, [r4]
 8011a62:	b002      	add	sp, #8
 8011a64:	bd70      	pop	{r4, r5, r6, pc}
 8011a66:	bf00      	nop
 8011a68:	1000172c 	andne	r1, r0, ip, lsr #14
 8011a6c:	080135b0 	stmdaeq	r1, {r4, r5, r7, r8, sl, ip, sp}

08011a70 <CMEM_GetIDEntry>:
 8011a70:	4b02      	ldr	r3, [pc, #8]	; (8011a7c <CMEM_GetIDEntry+0xc>)
 8011a72:	220a      	movs	r2, #10
 8011a74:	fb02 3000 	mla	r0, r2, r0, r3
 8011a78:	3010      	adds	r0, #16
 8011a7a:	4770      	bx	lr
 8011a7c:	080135b0 	stmdaeq	r1, {r4, r5, r7, r8, sl, ip, sp}

08011a80 <custom_get_NORFLASH_Size>:
 8011a80:	f44f 0080 	mov.w	r0, #4194304	; 0x400000
 8011a84:	4770      	bx	lr

08011a86 <Custom_NOR_Init>:
 8011a86:	f000 b897 	b.w	8011bb8 <CMEM_Init_FullDriver>

08011a8a <CMEM_BlockSize_Internal>:
 8011a8a:	b570      	push	{r4, r5, r6, lr}
 8011a8c:	f020 4078 	bic.w	r0, r0, #4160749568	; 0xf8000000
 8011a90:	2300      	movs	r3, #0
 8011a92:	b29a      	uxth	r2, r3
 8011a94:	1c55      	adds	r5, r2, #1
 8011a96:	eb01 04c5 	add.w	r4, r1, r5, lsl #3
 8011a9a:	6866      	ldr	r6, [r4, #4]
 8011a9c:	b13e      	cbz	r6, 8011aae <CMEM_BlockSize_Internal+0x24>
 8011a9e:	f854 4c08 	ldr.w	r4, [r4, #-8]
 8011aa2:	42a0      	cmp	r0, r4
 8011aa4:	d307      	bcc.n	8011ab6 <CMEM_BlockSize_Internal+0x2c>
 8011aa6:	f851 4035 	ldr.w	r4, [r1, r5, lsl #3]
 8011aaa:	42a0      	cmp	r0, r4
 8011aac:	d203      	bcs.n	8011ab6 <CMEM_BlockSize_Internal+0x2c>
 8011aae:	eb01 01c2 	add.w	r1, r1, r2, lsl #3
 8011ab2:	6848      	ldr	r0, [r1, #4]
 8011ab4:	bd70      	pop	{r4, r5, r6, pc}
 8011ab6:	3301      	adds	r3, #1
 8011ab8:	e7eb      	b.n	8011a92 <CMEM_BlockSize_Internal+0x8>
	...

08011abc <CMEM_BlockSize>:
 8011abc:	4b01      	ldr	r3, [pc, #4]	; (8011ac4 <CMEM_BlockSize+0x8>)
 8011abe:	6819      	ldr	r1, [r3, #0]
 8011ac0:	f7ff bfe3 	b.w	8011a8a <CMEM_BlockSize_Internal>
 8011ac4:	10001c20 	andne	r1, r0, r0, lsr #24

08011ac8 <NOR_Get_FlashSizeFromBankInfo>:
 8011ac8:	2300      	movs	r3, #0
 8011aca:	f850 2b08 	ldr.w	r2, [r0], #8
 8011ace:	b122      	cbz	r2, 8011ada <NOR_Get_FlashSizeFromBankInfo+0x12>
 8011ad0:	f850 1c04 	ldr.w	r1, [r0, #-4]
 8011ad4:	fb01 3302 	mla	r3, r1, r2, r3
 8011ad8:	e7f7      	b.n	8011aca <NOR_Get_FlashSizeFromBankInfo+0x2>
 8011ada:	4618      	mov	r0, r3
 8011adc:	4770      	bx	lr

08011ade <CMEM_NOR_Construct_RegionInfo_Internal>:
 8011ade:	e92d 43f8 	stmdb	sp!, {r3, r4, r5, r6, r7, r8, r9, lr}
 8011ae2:	2700      	movs	r7, #0
 8011ae4:	4606      	mov	r6, r0
 8011ae6:	4614      	mov	r4, r2
 8011ae8:	4699      	mov	r9, r3
 8011aea:	eb00 0801 	add.w	r8, r0, r1
 8011aee:	463d      	mov	r5, r7
 8011af0:	4546      	cmp	r6, r8
 8011af2:	d21f      	bcs.n	8011b34 <CMEM_NOR_Construct_RegionInfo_Internal+0x56>
 8011af4:	4630      	mov	r0, r6
 8011af6:	4649      	mov	r1, r9
 8011af8:	f7ff ffc7 	bl	8011a8a <CMEM_BlockSize_Internal>
 8011afc:	00ea      	lsls	r2, r5, #3
 8011afe:	b92f      	cbnz	r7, 8011b0c <CMEM_NOR_Construct_RegionInfo_Internal+0x2e>
 8011b00:	4422      	add	r2, r4
 8011b02:	2301      	movs	r3, #1
 8011b04:	f844 0035 	str.w	r0, [r4, r5, lsl #3]
 8011b08:	6053      	str	r3, [r2, #4]
 8011b0a:	e010      	b.n	8011b2e <CMEM_NOR_Construct_RegionInfo_Internal+0x50>
 8011b0c:	f854 1035 	ldr.w	r1, [r4, r5, lsl #3]
 8011b10:	4288      	cmp	r0, r1
 8011b12:	eb04 0302 	add.w	r3, r4, r2
 8011b16:	d102      	bne.n	8011b1e <CMEM_NOR_Construct_RegionInfo_Internal+0x40>
 8011b18:	685a      	ldr	r2, [r3, #4]
 8011b1a:	3201      	adds	r2, #1
 8011b1c:	e006      	b.n	8011b2c <CMEM_NOR_Construct_RegionInfo_Internal+0x4e>
 8011b1e:	3501      	adds	r5, #1
 8011b20:	2d09      	cmp	r5, #9
 8011b22:	d00a      	beq.n	8011b3a <CMEM_NOR_Construct_RegionInfo_Internal+0x5c>
 8011b24:	3208      	adds	r2, #8
 8011b26:	18a3      	adds	r3, r4, r2
 8011b28:	50a0      	str	r0, [r4, r2]
 8011b2a:	2201      	movs	r2, #1
 8011b2c:	605a      	str	r2, [r3, #4]
 8011b2e:	4406      	add	r6, r0
 8011b30:	3701      	adds	r7, #1
 8011b32:	e7dd      	b.n	8011af0 <CMEM_NOR_Construct_RegionInfo_Internal+0x12>
 8011b34:	2000      	movs	r0, #0
 8011b36:	e8bd 83f8 	ldmia.w	sp!, {r3, r4, r5, r6, r7, r8, r9, pc}
 8011b3a:	2006      	movs	r0, #6
 8011b3c:	e8bd 83f8 	ldmia.w	sp!, {r3, r4, r5, r6, r7, r8, r9, pc}

08011b40 <NOR_Construct_RegionInfo>:
 8011b40:	b570      	push	{r4, r5, r6, lr}
 8011b42:	4606      	mov	r6, r0
 8011b44:	460d      	mov	r5, r1
 8011b46:	4614      	mov	r4, r2
 8011b48:	4610      	mov	r0, r2
 8011b4a:	2100      	movs	r1, #0
 8011b4c:	2240      	movs	r2, #64	; 0x40
 8011b4e:	f000 fadc 	bl	801210a <memset>
 8011b52:	4b04      	ldr	r3, [pc, #16]	; (8011b64 <NOR_Construct_RegionInfo+0x24>)
 8011b54:	4630      	mov	r0, r6
 8011b56:	4629      	mov	r1, r5
 8011b58:	4622      	mov	r2, r4
 8011b5a:	681b      	ldr	r3, [r3, #0]
 8011b5c:	e8bd 4070 	ldmia.w	sp!, {r4, r5, r6, lr}
 8011b60:	f7ff bfbd 	b.w	8011ade <CMEM_NOR_Construct_RegionInfo_Internal>
 8011b64:	10001c20 	andne	r1, r0, r0, lsr #24

08011b68 <CMEM_Init_nor_list>:
 8011b68:	b508      	push	{r3, lr}
 8011b6a:	b990      	cbnz	r0, 8011b92 <CMEM_Init_nor_list+0x2a>
 8011b6c:	f7ff ff50 	bl	8011a10 <CMEM_Index>
 8011b70:	4a0a      	ldr	r2, [pc, #40]	; (8011b9c <CMEM_Init_nor_list+0x34>)
 8011b72:	2800      	cmp	r0, #0
 8011b74:	6010      	str	r0, [r2, #0]
 8011b76:	da08      	bge.n	8011b8a <CMEM_Init_nor_list+0x22>
 8011b78:	f001 f9c2 	bl	8012f00 <__Flash_ReturnReady_veneer>
 8011b7c:	4808      	ldr	r0, [pc, #32]	; (8011ba0 <CMEM_Init_nor_list+0x38>)
 8011b7e:	4a09      	ldr	r2, [pc, #36]	; (8011ba4 <CMEM_Init_nor_list+0x3c>)
 8011b80:	4b09      	ldr	r3, [pc, #36]	; (8011ba8 <CMEM_Init_nor_list+0x40>)
 8011b82:	f240 317b 	movw	r1, #891	; 0x37b
 8011b86:	f000 fa89 	bl	801209c <__assert_func>
 8011b8a:	f7ff ff71 	bl	8011a70 <CMEM_GetIDEntry>
 8011b8e:	4b07      	ldr	r3, [pc, #28]	; (8011bac <CMEM_Init_nor_list+0x44>)
 8011b90:	6018      	str	r0, [r3, #0]
 8011b92:	4b07      	ldr	r3, [pc, #28]	; (8011bb0 <CMEM_Init_nor_list+0x48>)
 8011b94:	4a07      	ldr	r2, [pc, #28]	; (8011bb4 <CMEM_Init_nor_list+0x4c>)
 8011b96:	601a      	str	r2, [r3, #0]
 8011b98:	bd08      	pop	{r3, pc}
 8011b9a:	bf00      	nop
 8011b9c:	10001c44 	andne	r1, r0, r4, asr #24
 8011ba0:	08013607 	stmdaeq	r1, {r0, r1, r2, r9, sl, ip, sp}
 8011ba4:	080135f4 	stmdaeq	r1, {r2, r4, r5, r6, r7, r8, sl, ip, sp}
 8011ba8:	08013079 	stmdaeq	r1, {r0, r3, r4, r5, r6, ip, sp}
 8011bac:	10001dfc 	strdne	r1, [r0], -ip
 8011bb0:	10001c24 	andne	r1, r0, r4, lsr #24
 8011bb4:	08013668 	stmdaeq	r1, {r3, r5, r6, r9, sl, ip, sp}

08011bb8 <CMEM_Init_FullDriver>:
 8011bb8:	e92d 47f0 	stmdb	sp!, {r4, r5, r6, r7, r8, r9, sl, lr}
 8011bbc:	f8df 90d4 	ldr.w	r9, [pc, #212]	; 8011c94 <CMEM_Init_FullDriver+0xdc>
 8011bc0:	f8df a0d4 	ldr.w	sl, [pc, #212]	; 8011c98 <CMEM_Init_FullDriver+0xe0>
 8011bc4:	4c28      	ldr	r4, [pc, #160]	; (8011c68 <CMEM_Init_FullDriver+0xb0>)
 8011bc6:	4f29      	ldr	r7, [pc, #164]	; (8011c6c <CMEM_Init_FullDriver+0xb4>)
 8011bc8:	f8df 80d0 	ldr.w	r8, [pc, #208]	; 8011c9c <CMEM_Init_FullDriver+0xe4>
 8011bcc:	2000      	movs	r0, #0
 8011bce:	f7ff ffcb 	bl	8011b68 <CMEM_Init_nor_list>
 8011bd2:	f8d9 3000 	ldr.w	r3, [r9]
 8011bd6:	f8da 1000 	ldr.w	r1, [sl]
 8011bda:	4825      	ldr	r0, [pc, #148]	; (8011c70 <CMEM_Init_FullDriver+0xb8>)
 8011bdc:	2688      	movs	r6, #136	; 0x88
 8011bde:	fb06 3101 	mla	r1, r6, r1, r3
 8011be2:	4b24      	ldr	r3, [pc, #144]	; (8011c74 <CMEM_Init_FullDriver+0xbc>)
 8011be4:	884a      	ldrh	r2, [r1, #2]
 8011be6:	601a      	str	r2, [r3, #0]
 8011be8:	4b23      	ldr	r3, [pc, #140]	; (8011c78 <CMEM_Init_FullDriver+0xc0>)
 8011bea:	f101 0208 	add.w	r2, r1, #8
 8011bee:	601a      	str	r2, [r3, #0]
 8011bf0:	3148      	adds	r1, #72	; 0x48
 8011bf2:	2240      	movs	r2, #64	; 0x40
 8011bf4:	f000 fa80 	bl	80120f8 <memcpy>
 8011bf8:	4b20      	ldr	r3, [pc, #128]	; (8011c7c <CMEM_Init_FullDriver+0xc4>)
 8011bfa:	f8c4 30ac 	str.w	r3, [r4, #172]	; 0xac
 8011bfe:	4b20      	ldr	r3, [pc, #128]	; (8011c80 <CMEM_Init_FullDriver+0xc8>)
 8011c00:	f8c4 30b0 	str.w	r3, [r4, #176]	; 0xb0
 8011c04:	43fb      	mvns	r3, r7
 8011c06:	f8da 1000 	ldr.w	r1, [sl]
 8011c0a:	6023      	str	r3, [r4, #0]
 8011c0c:	f8d9 3000 	ldr.w	r3, [r9]
 8011c10:	f04f 6200 	mov.w	r2, #134217728	; 0x8000000
 8011c14:	fb06 3601 	mla	r6, r6, r1, r3
 8011c18:	2500      	movs	r5, #0
 8011c1a:	f8a4 50c6 	strh.w	r5, [r4, #198]	; 0xc6
 8011c1e:	6062      	str	r2, [r4, #4]
 8011c20:	4640      	mov	r0, r8
 8011c22:	4621      	mov	r1, r4
 8011c24:	6873      	ldr	r3, [r6, #4]
 8011c26:	f7ff fe9d 	bl	8011964 <SF_DAL_Init_Driver>
 8011c2a:	3078      	adds	r0, #120	; 0x78
 8011c2c:	d108      	bne.n	8011c40 <CMEM_Init_FullDriver+0x88>
 8011c2e:	f001 f967 	bl	8012f00 <__Flash_ReturnReady_veneer>
 8011c32:	4814      	ldr	r0, [pc, #80]	; (8011c84 <CMEM_Init_FullDriver+0xcc>)
 8011c34:	4a14      	ldr	r2, [pc, #80]	; (8011c88 <CMEM_Init_FullDriver+0xd0>)
 8011c36:	4b15      	ldr	r3, [pc, #84]	; (8011c8c <CMEM_Init_FullDriver+0xd4>)
 8011c38:	f240 4109 	movw	r1, #1033	; 0x409
 8011c3c:	f000 fa2e 	bl	801209c <__assert_func>
 8011c40:	480b      	ldr	r0, [pc, #44]	; (8011c70 <CMEM_Init_FullDriver+0xb8>)
 8011c42:	4e13      	ldr	r6, [pc, #76]	; (8011c90 <CMEM_Init_FullDriver+0xd8>)
 8011c44:	f7ff ff40 	bl	8011ac8 <NOR_Get_FlashSizeFromBankInfo>
 8011c48:	463a      	mov	r2, r7
 8011c4a:	4601      	mov	r1, r0
 8011c4c:	6030      	str	r0, [r6, #0]
 8011c4e:	4628      	mov	r0, r5
 8011c50:	f7ff ff76 	bl	8011b40 <NOR_Construct_RegionInfo>
 8011c54:	6167      	str	r7, [r4, #20]
 8011c56:	f8c6 8004 	str.w	r8, [r6, #4]
 8011c5a:	60b4      	str	r4, [r6, #8]
 8011c5c:	f886 5080 	strb.w	r5, [r6, #128]	; 0x80
 8011c60:	4628      	mov	r0, r5
 8011c62:	e8bd 87f0 	ldmia.w	sp!, {r4, r5, r6, r7, r8, r9, sl, pc}
 8011c66:	bf00      	nop
 8011c68:	10001d14 	andne	r1, r0, r4, lsl sp
 8011c6c:	10001cd4 	ldrdne	r1, [r0], -r4
 8011c70:	10001be0 	andne	r1, r0, r0, ror #23
 8011c74:	10001df8 	strdne	r1, [r0], -r8
 8011c78:	10001c20 	andne	r1, r0, r0, lsr #24
 8011c7c:	10001ccc 	andne	r1, r0, ip, asr #25
 8011c80:	10001c28 	andne	r1, r0, r8, lsr #24
 8011c84:	08013607 	stmdaeq	r1, {r0, r1, r2, r9, sl, ip, sp}
 8011c88:	08013643 	stmdaeq	r1, {r0, r1, r6, r9, sl, ip, sp}
 8011c8c:	08013079 	stmdaeq	r1, {r0, r3, r4, r5, r6, ip, sp}
 8011c90:	10001c48 	andne	r1, r0, r8, asr #24
 8011c94:	10001c24 	andne	r1, r0, r4, lsr #24
 8011c98:	10001c44 	andne	r1, r0, r4, asr #24
 8011c9c:	10001ba4 	andne	r1, r0, r4, lsr #23

08011ca0 <GetFDMLock>:
 8011ca0:	b510      	push	{r4, lr}
 8011ca2:	f001 f925 	bl	8012ef0 <__SaveAndSetIRQMask_veneer>
 8011ca6:	4a0d      	ldr	r2, [pc, #52]	; (8011cdc <GetFDMLock+0x3c>)
 8011ca8:	6813      	ldr	r3, [r2, #0]
 8011caa:	2b01      	cmp	r3, #1
 8011cac:	d105      	bne.n	8011cba <GetFDMLock+0x1a>
 8011cae:	2400      	movs	r4, #0
 8011cb0:	6014      	str	r4, [r2, #0]
 8011cb2:	f001 f95d 	bl	8012f70 <__RestoreIRQMask_veneer>
 8011cb6:	4620      	mov	r0, r4
 8011cb8:	e00e      	b.n	8011cd8 <GetFDMLock+0x38>
 8011cba:	b91b      	cbnz	r3, 8011cc4 <GetFDMLock+0x24>
 8011cbc:	f001 f958 	bl	8012f70 <__RestoreIRQMask_veneer>
 8011cc0:	20fe      	movs	r0, #254	; 0xfe
 8011cc2:	e009      	b.n	8011cd8 <GetFDMLock+0x38>
 8011cc4:	f001 f954 	bl	8012f70 <__RestoreIRQMask_veneer>
 8011cc8:	f001 f91a 	bl	8012f00 <__Flash_ReturnReady_veneer>
 8011ccc:	4804      	ldr	r0, [pc, #16]	; (8011ce0 <GetFDMLock+0x40>)
 8011cce:	4a05      	ldr	r2, [pc, #20]	; (8011ce4 <GetFDMLock+0x44>)
 8011cd0:	4b05      	ldr	r3, [pc, #20]	; (8011ce8 <GetFDMLock+0x48>)
 8011cd2:	2146      	movs	r1, #70	; 0x46
 8011cd4:	f000 f9e2 	bl	801209c <__assert_func>
 8011cd8:	b240      	sxtb	r0, r0
 8011cda:	bd10      	pop	{r4, pc}
 8011cdc:	10001730 	andne	r1, r0, r0, lsr r7
 8011ce0:	08013928 	stmdaeq	r1, {r3, r5, r8, fp, ip, sp}
 8011ce4:	0801395f 	stmdaeq	r1, {r0, r1, r2, r3, r4, r6, r8, fp, ip, sp}
 8011ce8:	08013079 	stmdaeq	r1, {r0, r3, r4, r5, r6, ip, sp}

08011cec <FreeFDMLock>:
 8011cec:	b508      	push	{r3, lr}
 8011cee:	f001 f8ff 	bl	8012ef0 <__SaveAndSetIRQMask_veneer>
 8011cf2:	4b09      	ldr	r3, [pc, #36]	; (8011d18 <FreeFDMLock+0x2c>)
 8011cf4:	681a      	ldr	r2, [r3, #0]
 8011cf6:	b92a      	cbnz	r2, 8011d04 <FreeFDMLock+0x18>
 8011cf8:	2201      	movs	r2, #1
 8011cfa:	601a      	str	r2, [r3, #0]
 8011cfc:	e8bd 4008 	ldmia.w	sp!, {r3, lr}
 8011d00:	f001 b936 	b.w	8012f70 <__RestoreIRQMask_veneer>
 8011d04:	f001 f934 	bl	8012f70 <__RestoreIRQMask_veneer>
 8011d08:	f001 f8fa 	bl	8012f00 <__Flash_ReturnReady_veneer>
 8011d0c:	4803      	ldr	r0, [pc, #12]	; (8011d1c <FreeFDMLock+0x30>)
 8011d0e:	4a04      	ldr	r2, [pc, #16]	; (8011d20 <FreeFDMLock+0x34>)
 8011d10:	4b04      	ldr	r3, [pc, #16]	; (8011d24 <FreeFDMLock+0x38>)
 8011d12:	2152      	movs	r1, #82	; 0x52
 8011d14:	f000 f9c2 	bl	801209c <__assert_func>
 8011d18:	10001730 	andne	r1, r0, r0, lsr r7
 8011d1c:	08013928 	stmdaeq	r1, {r3, r5, r8, fp, ip, sp}
 8011d20:	08013910 	stmdaeq	r1, {r4, r8, fp, ip, sp}
 8011d24:	08013079 	stmdaeq	r1, {r0, r3, r4, r5, r6, ip, sp}

08011d28 <retrieve_FDM_lock>:
 8011d28:	b508      	push	{r3, lr}
 8011d2a:	f7ff ffb9 	bl	8011ca0 <GetFDMLock>
 8011d2e:	2800      	cmp	r0, #0
 8011d30:	d1fb      	bne.n	8011d2a <retrieve_FDM_lock+0x2>
 8011d32:	bd08      	pop	{r3, pc}

08011d34 <MountDevice>:
 8011d34:	b538      	push	{r3, r4, r5, lr}
 8011d36:	f890 3080 	ldrb.w	r3, [r0, #128]	; 0x80
 8011d3a:	4604      	mov	r4, r0
 8011d3c:	b9bb      	cbnz	r3, 8011d6e <MountDevice+0x3a>
 8011d3e:	f7ff fff3 	bl	8011d28 <retrieve_FDM_lock>
 8011d42:	6863      	ldr	r3, [r4, #4]
 8011d44:	68a0      	ldr	r0, [r4, #8]
 8011d46:	681b      	ldr	r3, [r3, #0]
 8011d48:	f104 010c 	add.w	r1, r4, #12
 8011d4c:	4798      	blx	r3
 8011d4e:	4605      	mov	r5, r0
 8011d50:	f7ff ffcc 	bl	8011cec <FreeFDMLock>
 8011d54:	2d00      	cmp	r5, #0
 8011d56:	da07      	bge.n	8011d68 <MountDevice+0x34>
 8011d58:	f001 f8d2 	bl	8012f00 <__Flash_ReturnReady_veneer>
 8011d5c:	4804      	ldr	r0, [pc, #16]	; (8011d70 <MountDevice+0x3c>)
 8011d5e:	4a05      	ldr	r2, [pc, #20]	; (8011d74 <MountDevice+0x40>)
 8011d60:	4b05      	ldr	r3, [pc, #20]	; (8011d78 <MountDevice+0x44>)
 8011d62:	21a1      	movs	r1, #161	; 0xa1
 8011d64:	f000 f99a 	bl	801209c <__assert_func>
 8011d68:	2301      	movs	r3, #1
 8011d6a:	f884 3080 	strb.w	r3, [r4, #128]	; 0x80
 8011d6e:	bd38      	pop	{r3, r4, r5, pc}
 8011d70:	08013928 	stmdaeq	r1, {r3, r5, r8, fp, ip, sp}
 8011d74:	0801391c 	stmdaeq	r1, {r2, r3, r4, r8, fp, ip, sp}
 8011d78:	08013079 	stmdaeq	r1, {r0, r3, r4, r5, r6, ip, sp}

08011d7c <NOR_init>:
 8011d7c:	b510      	push	{r4, lr}
 8011d7e:	4c07      	ldr	r4, [pc, #28]	; (8011d9c <NOR_init+0x20>)
 8011d80:	f994 3000 	ldrsb.w	r3, [r4]
 8011d84:	3305      	adds	r3, #5
 8011d86:	d106      	bne.n	8011d96 <NOR_init+0x1a>
 8011d88:	f7ff fe7d 	bl	8011a86 <Custom_NOR_Init>
 8011d8c:	4804      	ldr	r0, [pc, #16]	; (8011da0 <NOR_init+0x24>)
 8011d8e:	f7ff ffd1 	bl	8011d34 <MountDevice>
 8011d92:	2300      	movs	r3, #0
 8011d94:	7023      	strb	r3, [r4, #0]
 8011d96:	2000      	movs	r0, #0
 8011d98:	bd10      	pop	{r4, pc}
 8011d9a:	bf00      	nop
 8011d9c:	0400a3d0 	streq	sl, [r0], #-976	; 0x3d0
 8011da0:	10001c48 	andne	r1, r0, r8, asr #24

08011da4 <hal_flash_init>:
 8011da4:	b508      	push	{r3, lr}
 8011da6:	f7ff ffe9 	bl	8011d7c <NOR_init>
 8011daa:	2000      	movs	r0, #0
 8011dac:	bd08      	pop	{r3, pc}

08011dae <log_hal_error_internal>:
 8011dae:	b40c      	push	{r2, r3}
 8011db0:	b537      	push	{r0, r1, r2, r4, r5, lr}
 8011db2:	ac06      	add	r4, sp, #24
 8011db4:	a801      	add	r0, sp, #4
 8011db6:	f854 5b04 	ldr.w	r5, [r4], #4
 8011dba:	f7ff fc7f 	bl	80116bc <hal_nvic_save_and_set_interrupt_mask>
 8011dbe:	4621      	mov	r1, r4
 8011dc0:	4628      	mov	r0, r5
 8011dc2:	9400      	str	r4, [sp, #0]
 8011dc4:	f000 fc5c 	bl	8012680 <viprintf>
 8011dc8:	9801      	ldr	r0, [sp, #4]
 8011dca:	f7ff fc7e 	bl	80116ca <hal_nvic_restore_interrupt_mask>
 8011dce:	b003      	add	sp, #12
 8011dd0:	e8bd 4030 	ldmia.w	sp!, {r4, r5, lr}
 8011dd4:	b002      	add	sp, #8
 8011dd6:	4770      	bx	lr

08011dd8 <log_hal_info_internal>:
 8011dd8:	b40c      	push	{r2, r3}
 8011dda:	b537      	push	{r0, r1, r2, r4, r5, lr}
 8011ddc:	ac06      	add	r4, sp, #24
 8011dde:	a801      	add	r0, sp, #4
 8011de0:	f854 5b04 	ldr.w	r5, [r4], #4
 8011de4:	f7ff fc6a 	bl	80116bc <hal_nvic_save_and_set_interrupt_mask>
 8011de8:	4621      	mov	r1, r4
 8011dea:	4628      	mov	r0, r5
 8011dec:	9400      	str	r4, [sp, #0]
 8011dee:	f000 fc47 	bl	8012680 <viprintf>
 8011df2:	9801      	ldr	r0, [sp, #4]
 8011df4:	f7ff fc69 	bl	80116ca <hal_nvic_restore_interrupt_mask>
 8011df8:	b003      	add	sp, #12
 8011dfa:	e8bd 4030 	ldmia.w	sp!, {r4, r5, lr}
 8011dfe:	b002      	add	sp, #8
 8011e00:	4770      	bx	lr
	...

08011e04 <uart_read_from_input>:
 8011e04:	2801      	cmp	r0, #1
 8011e06:	bf04      	itt	eq
 8011e08:	4b01      	ldreq	r3, [pc, #4]	; (8011e10 <uart_read_from_input+0xc>)
 8011e0a:	7018      	strbeq	r0, [r3, #0]
 8011e0c:	4770      	bx	lr
 8011e0e:	bf00      	nop
 8011e10:	10001e18 	andne	r1, r0, r8, lsl lr

08011e14 <uart_loopback_data_dma_example>:
 8011e14:	b530      	push	{r4, r5, lr}
 8011e16:	2000      	movs	r0, #0
 8011e18:	b0c9      	sub	sp, #292	; 0x124
 8011e1a:	f7fe fee5 	bl	8010be8 <hal_gpio_init>
 8011e1e:	2001      	movs	r0, #1
 8011e20:	f7fe fee2 	bl	8010be8 <hal_gpio_init>
 8011e24:	2103      	movs	r1, #3
 8011e26:	2000      	movs	r0, #0
 8011e28:	f7fe fee0 	bl	8010bec <hal_pinmux_set_function>
 8011e2c:	2103      	movs	r1, #3
 8011e2e:	2001      	movs	r0, #1
 8011e30:	f7fe fedc 	bl	8010bec <hal_pinmux_set_function>
 8011e34:	2309      	movs	r3, #9
 8011e36:	2400      	movs	r4, #0
 8011e38:	f88d 3000 	strb.w	r3, [sp]
 8011e3c:	4669      	mov	r1, sp
 8011e3e:	2303      	movs	r3, #3
 8011e40:	2002      	movs	r0, #2
 8011e42:	f88d 3001 	strb.w	r3, [sp, #1]
 8011e46:	f88d 4003 	strb.w	r4, [sp, #3]
 8011e4a:	f88d 4002 	strb.w	r4, [sp, #2]
 8011e4e:	f7fe ffd7 	bl	8010e00 <hal_uart_init>
 8011e52:	231e      	movs	r3, #30
 8011e54:	4a17      	ldr	r2, [pc, #92]	; (8011eb4 <uart_loopback_data_dma_example+0xa0>)
 8011e56:	9307      	str	r3, [sp, #28]
 8011e58:	2196      	movs	r1, #150	; 0x96
 8011e5a:	f44f 7380 	mov.w	r3, #256	; 0x100
 8011e5e:	9204      	str	r2, [sp, #16]
 8011e60:	9305      	str	r3, [sp, #20]
 8011e62:	441a      	add	r2, r3
 8011e64:	9106      	str	r1, [sp, #24]
 8011e66:	9302      	str	r3, [sp, #8]
 8011e68:	a901      	add	r1, sp, #4
 8011e6a:	2332      	movs	r3, #50	; 0x32
 8011e6c:	2002      	movs	r0, #2
 8011e6e:	9201      	str	r2, [sp, #4]
 8011e70:	9303      	str	r3, [sp, #12]
 8011e72:	f7ff f9ad 	bl	80111d0 <hal_uart_set_dma>
 8011e76:	4910      	ldr	r1, [pc, #64]	; (8011eb8 <uart_loopback_data_dma_example+0xa4>)
 8011e78:	4622      	mov	r2, r4
 8011e7a:	2002      	movs	r0, #2
 8011e7c:	f7ff f8c2 	bl	8011004 <hal_uart_register_callback>
 8011e80:	2002      	movs	r0, #2
 8011e82:	490e      	ldr	r1, [pc, #56]	; (8011ebc <uart_loopback_data_dma_example+0xa8>)
 8011e84:	2241      	movs	r2, #65	; 0x41
 8011e86:	f7ff f82d 	bl	8010ee4 <hal_uart_send_dma>
 8011e8a:	4c0d      	ldr	r4, [pc, #52]	; (8011ec0 <uart_loopback_data_dma_example+0xac>)
 8011e8c:	7823      	ldrb	r3, [r4, #0]
 8011e8e:	2b00      	cmp	r3, #0
 8011e90:	d0fb      	beq.n	8011e8a <uart_loopback_data_dma_example+0x76>
 8011e92:	2002      	movs	r0, #2
 8011e94:	f7ff f978 	bl	8011188 <hal_uart_get_available_receive_bytes>
 8011e98:	4605      	mov	r5, r0
 8011e9a:	a908      	add	r1, sp, #32
 8011e9c:	462a      	mov	r2, r5
 8011e9e:	2002      	movs	r0, #2
 8011ea0:	f7ff f868 	bl	8010f74 <hal_uart_receive_dma>
 8011ea4:	2002      	movs	r0, #2
 8011ea6:	a908      	add	r1, sp, #32
 8011ea8:	462a      	mov	r2, r5
 8011eaa:	f7ff f81b 	bl	8010ee4 <hal_uart_send_dma>
 8011eae:	2300      	movs	r3, #0
 8011eb0:	7023      	strb	r3, [r4, #0]
 8011eb2:	e7ea      	b.n	8011e8a <uart_loopback_data_dma_example+0x76>
 8011eb4:	00001458 	andeq	r1, r0, r8, asr r4
 8011eb8:	08011e05 	stmdaeq	r1, {r0, r2, r9, sl, fp, ip}
 8011ebc:	080139ba 	stmdaeq	r1, {r1, r3, r4, r5, r7, r8, fp, ip, sp}
 8011ec0:	10001e18 	andne	r1, r0, r8, lsl lr

08011ec4 <__io_putchar>:
 8011ec4:	4770      	bx	lr

08011ec6 <main>:
 8011ec6:	b508      	push	{r3, lr}
 8011ec8:	f001 f82a 	bl	8012f20 <__hal_clock_init_veneer>
 8011ecc:	f000 f83c 	bl	8011f48 <SystemCoreClockUpdate>
 8011ed0:	f7ff ff68 	bl	8011da4 <hal_flash_init>
 8011ed4:	f7ff fb9e 	bl	8011614 <hal_nvic_init>
 8011ed8:	b662      	cpsie	i
 8011eda:	b661      	cpsie	f
 8011edc:	f7ff ff9a 	bl	8011e14 <uart_loopback_data_dma_example>

08011ee0 <_close>:
 8011ee0:	2000      	movs	r0, #0
 8011ee2:	4770      	bx	lr

08011ee4 <_fstat>:
 8011ee4:	2000      	movs	r0, #0
 8011ee6:	4770      	bx	lr

08011ee8 <_isatty>:
 8011ee8:	2001      	movs	r0, #1
 8011eea:	4770      	bx	lr

08011eec <_lseek>:
 8011eec:	2000      	movs	r0, #0
 8011eee:	4770      	bx	lr

08011ef0 <_read>:
 8011ef0:	2000      	movs	r0, #0
 8011ef2:	4770      	bx	lr

08011ef4 <_getpid>:
 8011ef4:	2001      	movs	r0, #1
 8011ef6:	4770      	bx	lr

08011ef8 <_kill>:
 8011ef8:	f04f 30ff 	mov.w	r0, #4294967295
 8011efc:	4770      	bx	lr

08011efe <_exit>:
 8011efe:	f04f 30ff 	mov.w	r0, #4294967295
 8011f02:	4770      	bx	lr

08011f04 <_sbrk_r>:
 8011f04:	f3ef 8208 	mrs	r2, MSP
 8011f08:	4b06      	ldr	r3, [pc, #24]	; (8011f24 <_sbrk_r+0x20>)
 8011f0a:	6818      	ldr	r0, [r3, #0]
 8011f0c:	b908      	cbnz	r0, 8011f12 <_sbrk_r+0xe>
 8011f0e:	4806      	ldr	r0, [pc, #24]	; (8011f28 <_sbrk_r+0x24>)
 8011f10:	6018      	str	r0, [r3, #0]
 8011f12:	6818      	ldr	r0, [r3, #0]
 8011f14:	4401      	add	r1, r0
 8011f16:	428a      	cmp	r2, r1
 8011f18:	bf2a      	itet	cs
 8011f1a:	4b02      	ldrcs	r3, [pc, #8]	; (8011f24 <_sbrk_r+0x20>)
 8011f1c:	f04f 30ff 	movcc.w	r0, #4294967295
 8011f20:	6019      	strcs	r1, [r3, #0]
 8011f22:	4770      	bx	lr
 8011f24:	10001e1c 	andne	r1, r0, ip, lsl lr
 8011f28:	0400b704 	streq	fp, [r0], #-1796	; 0x704

08011f2c <_write>:
 8011f2c:	b570      	push	{r4, r5, r6, lr}
 8011f2e:	460e      	mov	r6, r1
 8011f30:	4615      	mov	r5, r2
 8011f32:	2400      	movs	r4, #0
 8011f34:	42ac      	cmp	r4, r5
 8011f36:	da04      	bge.n	8011f42 <_write+0x16>
 8011f38:	5d30      	ldrb	r0, [r6, r4]
 8011f3a:	f7ff ffc3 	bl	8011ec4 <__io_putchar>
 8011f3e:	3401      	adds	r4, #1
 8011f40:	e7f8      	b.n	8011f34 <_write+0x8>
 8011f42:	4628      	mov	r0, r5
 8011f44:	bd70      	pop	{r4, r5, r6, pc}
	...

08011f48 <SystemCoreClockUpdate>:
 8011f48:	4b10      	ldr	r3, [pc, #64]	; (8011f8c <SystemCoreClockUpdate+0x44>)
 8011f4a:	685a      	ldr	r2, [r3, #4]
 8011f4c:	4b10      	ldr	r3, [pc, #64]	; (8011f90 <SystemCoreClockUpdate+0x48>)
 8011f4e:	f3c2 02c3 	ubfx	r2, r2, #3, #4
 8011f52:	2a08      	cmp	r2, #8
 8011f54:	d80c      	bhi.n	8011f70 <SystemCoreClockUpdate+0x28>
 8011f56:	e8df f002 	tbb	[pc, r2]
 8011f5a:	05050b0b 	streq	r0, [r5, #-2827]	; 0xb0b
 8011f5e:	07090705 	streq	r0, [r9, -r5, lsl #14]
 8011f62:	4a0b0009 	bmi	82d1f8e <Load$$TCM$$Base+0x2bcc2e>
 8011f66:	e004      	b.n	8011f72 <SystemCoreClockUpdate+0x2a>
 8011f68:	4a0b      	ldr	r2, [pc, #44]	; (8011f98 <SystemCoreClockUpdate+0x50>)
 8011f6a:	e002      	b.n	8011f72 <SystemCoreClockUpdate+0x2a>
 8011f6c:	4a0b      	ldr	r2, [pc, #44]	; (8011f9c <SystemCoreClockUpdate+0x54>)
 8011f6e:	e000      	b.n	8011f72 <SystemCoreClockUpdate+0x2a>
 8011f70:	4a0b      	ldr	r2, [pc, #44]	; (8011fa0 <SystemCoreClockUpdate+0x58>)
 8011f72:	601a      	str	r2, [r3, #0]
 8011f74:	4a0b      	ldr	r2, [pc, #44]	; (8011fa4 <SystemCoreClockUpdate+0x5c>)
 8011f76:	6812      	ldr	r2, [r2, #0]
 8011f78:	0552      	lsls	r2, r2, #21
 8011f7a:	d505      	bpl.n	8011f88 <SystemCoreClockUpdate+0x40>
 8011f7c:	681b      	ldr	r3, [r3, #0]
 8011f7e:	4a05      	ldr	r2, [pc, #20]	; (8011f94 <SystemCoreClockUpdate+0x4c>)
 8011f80:	4293      	cmp	r3, r2
 8011f82:	bf84      	itt	hi
 8011f84:	4b02      	ldrhi	r3, [pc, #8]	; (8011f90 <SystemCoreClockUpdate+0x48>)
 8011f86:	601a      	strhi	r2, [r3, #0]
 8011f88:	4770      	bx	lr
 8011f8a:	bf00      	nop
 8011f8c:	a2010100 	andge	r0, r1, #0, 2
 8011f90:	10001e20 	andne	r1, r0, r0, lsr #28
 8011f94:	0632ea00 	ldrteq	lr, [r2], -r0, lsl #20
 8011f98:	0c65d400 	cfstrdeq	mvd13, [r5], #-0
 8011f9c:	094c5f00 	stmdbeq	ip, {r8, r9, sl, fp, ip, lr}^
 8011fa0:	018cba80 	orreq	fp, ip, r0, lsl #21
 8011fa4:	a2060040 	andge	r0, r6, #64	; 0x40

08011fa8 <SystemInit>:
 8011fa8:	4b06      	ldr	r3, [pc, #24]	; (8011fc4 <SystemInit+0x1c>)
 8011faa:	f8d3 2088 	ldr.w	r2, [r3, #136]	; 0x88
 8011fae:	f442 0270 	orr.w	r2, r2, #15728640	; 0xf00000
 8011fb2:	f8c3 2088 	str.w	r2, [r3, #136]	; 0x88
 8011fb6:	2200      	movs	r2, #0
 8011fb8:	609a      	str	r2, [r3, #8]
 8011fba:	6a5a      	ldr	r2, [r3, #36]	; 0x24
 8011fbc:	f442 22e0 	orr.w	r2, r2, #458752	; 0x70000
 8011fc0:	625a      	str	r2, [r3, #36]	; 0x24
 8011fc2:	4770      	bx	lr
 8011fc4:	e000ed00 	and	lr, r0, r0, lsl #26

08011fc8 <CachePreInit>:
 8011fc8:	4b09      	ldr	r3, [pc, #36]	; (8011ff0 <CachePreInit+0x28>)
 8011fca:	490a      	ldr	r1, [pc, #40]	; (8011ff4 <CachePreInit+0x2c>)
 8011fcc:	2200      	movs	r2, #0
 8011fce:	601a      	str	r2, [r3, #0]
 8011fd0:	2213      	movs	r2, #19
 8011fd2:	605a      	str	r2, [r3, #4]
 8011fd4:	2203      	movs	r2, #3
 8011fd6:	605a      	str	r2, [r3, #4]
 8011fd8:	f503 3280 	add.w	r2, r3, #65536	; 0x10000
 8011fdc:	6011      	str	r1, [r2, #0]
 8011fde:	4906      	ldr	r1, [pc, #24]	; (8011ff8 <CachePreInit+0x30>)
 8011fe0:	6411      	str	r1, [r2, #64]	; 0x40
 8011fe2:	2201      	movs	r2, #1
 8011fe4:	62da      	str	r2, [r3, #44]	; 0x2c
 8011fe6:	f240 320d 	movw	r2, #781	; 0x30d
 8011fea:	601a      	str	r2, [r3, #0]
 8011fec:	4770      	bx	lr
 8011fee:	bf00      	nop
 8011ff0:	a0880000 	addge	r0, r8, r0
 8011ff4:	08010100 	stmdaeq	r1, {r8}
 8011ff8:	083e0000 	ldmdaeq	lr!, {}	; <UNPREDICTABLE>

08011ffc <CopyDataLoop>:
 8011ffc:	429a      	cmp	r2, r3
 8011ffe:	bf3e      	ittt	cc
 8012000:	f851 0b04 	ldrcc.w	r0, [r1], #4
 8012004:	f842 0b04 	strcc.w	r0, [r2], #4
 8012008:	f7ff bff8 	bcc.w	8011ffc <CopyDataLoop>
 801200c:	4770      	bx	lr

0801200e <Bss_Init>:
 801200e:	429a      	cmp	r2, r3
 8012010:	bf3e      	ittt	cc
 8012012:	2000      	movcc	r0, #0
 8012014:	f842 0b04 	strcc.w	r0, [r2], #4
 8012018:	f7ff bff9 	bcc.w	801200e <Bss_Init>
 801201c:	4770      	bx	lr

0801201e <BusFault_Handler>:
 801201e:	f7ff bffe 	b.w	801201e <BusFault_Handler>
	...

08012024 <clock_get_freq_lfosc>:
 8012024:	4b01      	ldr	r3, [pc, #4]	; (801202c <clock_get_freq_lfosc+0x8>)
 8012026:	f8d3 082c 	ldr.w	r0, [r3, #2092]	; 0x82c
 801202a:	4770      	bx	lr
 801202c:	0400a420 	streq	sl, [r0], #-1056	; 0x420

08012030 <clock_get_freq_peri_bus>:
 8012030:	4b16      	ldr	r3, [pc, #88]	; (801208c <clock_get_freq_peri_bus+0x5c>)
 8012032:	685a      	ldr	r2, [r3, #4]
 8012034:	69db      	ldr	r3, [r3, #28]
 8012036:	f002 0207 	and.w	r2, r2, #7
 801203a:	3a02      	subs	r2, #2
 801203c:	b2d2      	uxtb	r2, r2
 801203e:	2a04      	cmp	r2, #4
 8012040:	f003 031f 	and.w	r3, r3, #31
 8012044:	d80c      	bhi.n	8012060 <clock_get_freq_peri_bus+0x30>
 8012046:	2101      	movs	r1, #1
 8012048:	fa01 f202 	lsl.w	r2, r1, r2
 801204c:	f012 0f14 	tst.w	r2, #20
 8012050:	d108      	bne.n	8012064 <clock_get_freq_peri_bus+0x34>
 8012052:	f012 0f0b 	tst.w	r2, #11
 8012056:	480e      	ldr	r0, [pc, #56]	; (8012090 <clock_get_freq_peri_bus+0x60>)
 8012058:	4a0e      	ldr	r2, [pc, #56]	; (8012094 <clock_get_freq_peri_bus+0x64>)
 801205a:	bf18      	it	ne
 801205c:	4610      	movne	r0, r2
 801205e:	e002      	b.n	8012066 <clock_get_freq_peri_bus+0x36>
 8012060:	480b      	ldr	r0, [pc, #44]	; (8012090 <clock_get_freq_peri_bus+0x60>)
 8012062:	e000      	b.n	8012066 <clock_get_freq_peri_bus+0x36>
 8012064:	480c      	ldr	r0, [pc, #48]	; (8012098 <clock_get_freq_peri_bus+0x68>)
 8012066:	2b08      	cmp	r3, #8
 8012068:	d80f      	bhi.n	801208a <clock_get_freq_peri_bus+0x5a>
 801206a:	e8df f003 	tbb	[pc, r3]
 801206e:	0e090705 	cdpeq	7, 0, cr0, cr9, cr5, {0}
 8012072:	0e0e0e0b 	cdpeq	14, 0, cr0, cr14, cr11, {0}
 8012076:	0940000d 	stmdbeq	r0, {r0, r2, r3}^
 801207a:	4770      	bx	lr
 801207c:	0900      	lsrs	r0, r0, #4
 801207e:	4770      	bx	lr
 8012080:	08c0      	lsrs	r0, r0, #3
 8012082:	4770      	bx	lr
 8012084:	0880      	lsrs	r0, r0, #2
 8012086:	4770      	bx	lr
 8012088:	0840      	lsrs	r0, r0, #1
 801208a:	4770      	bx	lr
 801208c:	a2010100 	andge	r0, r1, #0, 2
 8012090:	018cba80 	orreq	fp, ip, r0, lsl #21
 8012094:	03b82600 			; <UNDEFINED> instruction: 0x03b82600
 8012098:	03197500 	tsteq	r9, #0, 10

0801209c <__assert_func>:
 801209c:	b51f      	push	{r0, r1, r2, r3, r4, lr}
 801209e:	4606      	mov	r6, r0
 80120a0:	4808      	ldr	r0, [pc, #32]	; (80120c4 <__assert_func+0x28>)
 80120a2:	6800      	ldr	r0, [r0, #0]
 80120a4:	68c0      	ldr	r0, [r0, #12]
 80120a6:	b112      	cbz	r2, 80120ae <__assert_func+0x12>
 80120a8:	4615      	mov	r5, r2
 80120aa:	4c07      	ldr	r4, [pc, #28]	; (80120c8 <__assert_func+0x2c>)
 80120ac:	e001      	b.n	80120b2 <__assert_func+0x16>
 80120ae:	4c07      	ldr	r4, [pc, #28]	; (80120cc <__assert_func+0x30>)
 80120b0:	4625      	mov	r5, r4
 80120b2:	461a      	mov	r2, r3
 80120b4:	e88d 0032 	stmia.w	sp, {r1, r4, r5}
 80120b8:	4633      	mov	r3, r6
 80120ba:	4905      	ldr	r1, [pc, #20]	; (80120d0 <__assert_func+0x34>)
 80120bc:	f000 f80a 	bl	80120d4 <fiprintf>
 80120c0:	f000 fbb6 	bl	8012830 <abort>
 80120c4:	100017d0 	ldrdne	r1, [r0], -r0
 80120c8:	08013cbd 	stmdaeq	r1, {r0, r2, r3, r4, r5, r7, sl, fp, ip, sp}
 80120cc:	080139fa 	stmdaeq	r1, {r1, r3, r4, r5, r6, r7, r8, fp, ip, sp}
 80120d0:	08013cca 	stmdaeq	r1, {r1, r3, r6, r7, sl, fp, ip, sp}

080120d4 <fiprintf>:
 80120d4:	b40e      	push	{r1, r2, r3}
 80120d6:	b503      	push	{r0, r1, lr}
 80120d8:	4601      	mov	r1, r0
 80120da:	ab03      	add	r3, sp, #12
 80120dc:	4805      	ldr	r0, [pc, #20]	; (80120f4 <fiprintf+0x20>)
 80120de:	f853 2b04 	ldr.w	r2, [r3], #4
 80120e2:	6800      	ldr	r0, [r0, #0]
 80120e4:	9301      	str	r3, [sp, #4]
 80120e6:	f000 f841 	bl	801216c <_vfiprintf_r>
 80120ea:	b002      	add	sp, #8
 80120ec:	f85d eb04 	ldr.w	lr, [sp], #4
 80120f0:	b003      	add	sp, #12
 80120f2:	4770      	bx	lr
 80120f4:	100017d0 	ldrdne	r1, [r0], -r0

080120f8 <memcpy>:
 80120f8:	b510      	push	{r4, lr}
 80120fa:	2300      	movs	r3, #0
 80120fc:	4293      	cmp	r3, r2
 80120fe:	d003      	beq.n	8012108 <memcpy+0x10>
 8012100:	5ccc      	ldrb	r4, [r1, r3]
 8012102:	54c4      	strb	r4, [r0, r3]
 8012104:	3301      	adds	r3, #1
 8012106:	e7f9      	b.n	80120fc <memcpy+0x4>
 8012108:	bd10      	pop	{r4, pc}

0801210a <memset>:
 801210a:	4402      	add	r2, r0
 801210c:	4603      	mov	r3, r0
 801210e:	4293      	cmp	r3, r2
 8012110:	d002      	beq.n	8012118 <memset+0xe>
 8012112:	f803 1b01 	strb.w	r1, [r3], #1
 8012116:	e7fa      	b.n	801210e <memset+0x4>
 8012118:	4770      	bx	lr

0801211a <__sfputc_r>:
 801211a:	6893      	ldr	r3, [r2, #8]
 801211c:	3b01      	subs	r3, #1
 801211e:	2b00      	cmp	r3, #0
 8012120:	b510      	push	{r4, lr}
 8012122:	6093      	str	r3, [r2, #8]
 8012124:	da05      	bge.n	8012132 <__sfputc_r+0x18>
 8012126:	6994      	ldr	r4, [r2, #24]
 8012128:	42a3      	cmp	r3, r4
 801212a:	db08      	blt.n	801213e <__sfputc_r+0x24>
 801212c:	b2cb      	uxtb	r3, r1
 801212e:	2b0a      	cmp	r3, #10
 8012130:	d005      	beq.n	801213e <__sfputc_r+0x24>
 8012132:	6813      	ldr	r3, [r2, #0]
 8012134:	1c58      	adds	r0, r3, #1
 8012136:	6010      	str	r0, [r2, #0]
 8012138:	7019      	strb	r1, [r3, #0]
 801213a:	b2c8      	uxtb	r0, r1
 801213c:	bd10      	pop	{r4, pc}
 801213e:	e8bd 4010 	ldmia.w	sp!, {r4, lr}
 8012142:	f000 bab3 	b.w	80126ac <__swbuf_r>

08012146 <__sfputs_r>:
 8012146:	b5f8      	push	{r3, r4, r5, r6, r7, lr}
 8012148:	4605      	mov	r5, r0
 801214a:	460e      	mov	r6, r1
 801214c:	4614      	mov	r4, r2
 801214e:	18d7      	adds	r7, r2, r3
 8012150:	42bc      	cmp	r4, r7
 8012152:	d008      	beq.n	8012166 <__sfputs_r+0x20>
 8012154:	4628      	mov	r0, r5
 8012156:	f814 1b01 	ldrb.w	r1, [r4], #1
 801215a:	4632      	mov	r2, r6
 801215c:	f7ff ffdd 	bl	801211a <__sfputc_r>
 8012160:	1c43      	adds	r3, r0, #1
 8012162:	d1f5      	bne.n	8012150 <__sfputs_r+0xa>
 8012164:	e000      	b.n	8012168 <__sfputs_r+0x22>
 8012166:	2000      	movs	r0, #0
 8012168:	bdf8      	pop	{r3, r4, r5, r6, r7, pc}
	...

0801216c <_vfiprintf_r>:
 801216c:	e92d 43f0 	stmdb	sp!, {r4, r5, r6, r7, r8, r9, lr}
 8012170:	b09d      	sub	sp, #116	; 0x74
 8012172:	460d      	mov	r5, r1
 8012174:	4617      	mov	r7, r2
 8012176:	9303      	str	r3, [sp, #12]
 8012178:	4606      	mov	r6, r0
 801217a:	b118      	cbz	r0, 8012184 <_vfiprintf_r+0x18>
 801217c:	6983      	ldr	r3, [r0, #24]
 801217e:	b90b      	cbnz	r3, 8012184 <_vfiprintf_r+0x18>
 8012180:	f000 fc5e 	bl	8012a40 <__sinit>
 8012184:	4b73      	ldr	r3, [pc, #460]	; (8012354 <_vfiprintf_r+0x1e8>)
 8012186:	429d      	cmp	r5, r3
 8012188:	d101      	bne.n	801218e <_vfiprintf_r+0x22>
 801218a:	6875      	ldr	r5, [r6, #4]
 801218c:	e008      	b.n	80121a0 <_vfiprintf_r+0x34>
 801218e:	4b72      	ldr	r3, [pc, #456]	; (8012358 <_vfiprintf_r+0x1ec>)
 8012190:	429d      	cmp	r5, r3
 8012192:	d101      	bne.n	8012198 <_vfiprintf_r+0x2c>
 8012194:	68b5      	ldr	r5, [r6, #8]
 8012196:	e003      	b.n	80121a0 <_vfiprintf_r+0x34>
 8012198:	4b70      	ldr	r3, [pc, #448]	; (801235c <_vfiprintf_r+0x1f0>)
 801219a:	429d      	cmp	r5, r3
 801219c:	bf08      	it	eq
 801219e:	68f5      	ldreq	r5, [r6, #12]
 80121a0:	89ab      	ldrh	r3, [r5, #12]
 80121a2:	0718      	lsls	r0, r3, #28
 80121a4:	d50a      	bpl.n	80121bc <_vfiprintf_r+0x50>
 80121a6:	692b      	ldr	r3, [r5, #16]
 80121a8:	b143      	cbz	r3, 80121bc <_vfiprintf_r+0x50>
 80121aa:	2300      	movs	r3, #0
 80121ac:	9309      	str	r3, [sp, #36]	; 0x24
 80121ae:	2320      	movs	r3, #32
 80121b0:	f88d 3029 	strb.w	r3, [sp, #41]	; 0x29
 80121b4:	2330      	movs	r3, #48	; 0x30
 80121b6:	f88d 302a 	strb.w	r3, [sp, #42]	; 0x2a
 80121ba:	e038      	b.n	801222e <_vfiprintf_r+0xc2>
 80121bc:	4630      	mov	r0, r6
 80121be:	4629      	mov	r1, r5
 80121c0:	f000 fac8 	bl	8012754 <__swsetup_r>
 80121c4:	2800      	cmp	r0, #0
 80121c6:	d0f0      	beq.n	80121aa <_vfiprintf_r+0x3e>
 80121c8:	f04f 30ff 	mov.w	r0, #4294967295
 80121cc:	e0bf      	b.n	801234e <_vfiprintf_r+0x1e2>
 80121ce:	9a03      	ldr	r2, [sp, #12]
 80121d0:	1d11      	adds	r1, r2, #4
 80121d2:	6812      	ldr	r2, [r2, #0]
 80121d4:	9103      	str	r1, [sp, #12]
 80121d6:	2a00      	cmp	r2, #0
 80121d8:	db70      	blt.n	80122bc <_vfiprintf_r+0x150>
 80121da:	9207      	str	r2, [sp, #28]
 80121dc:	3401      	adds	r4, #1
 80121de:	7823      	ldrb	r3, [r4, #0]
 80121e0:	2b2e      	cmp	r3, #46	; 0x2e
 80121e2:	d07d      	beq.n	80122e0 <_vfiprintf_r+0x174>
 80121e4:	4f5e      	ldr	r7, [pc, #376]	; (8012360 <_vfiprintf_r+0x1f4>)
 80121e6:	7821      	ldrb	r1, [r4, #0]
 80121e8:	4638      	mov	r0, r7
 80121ea:	2203      	movs	r2, #3
 80121ec:	f000 fce0 	bl	8012bb0 <memchr>
 80121f0:	b130      	cbz	r0, 8012200 <_vfiprintf_r+0x94>
 80121f2:	1bc7      	subs	r7, r0, r7
 80121f4:	9b04      	ldr	r3, [sp, #16]
 80121f6:	2040      	movs	r0, #64	; 0x40
 80121f8:	40b8      	lsls	r0, r7
 80121fa:	4303      	orrs	r3, r0
 80121fc:	9304      	str	r3, [sp, #16]
 80121fe:	3401      	adds	r4, #1
 8012200:	7821      	ldrb	r1, [r4, #0]
 8012202:	4858      	ldr	r0, [pc, #352]	; (8012364 <_vfiprintf_r+0x1f8>)
 8012204:	f88d 1028 	strb.w	r1, [sp, #40]	; 0x28
 8012208:	2206      	movs	r2, #6
 801220a:	1c67      	adds	r7, r4, #1
 801220c:	f000 fcd0 	bl	8012bb0 <memchr>
 8012210:	2800      	cmp	r0, #0
 8012212:	f000 808a 	beq.w	801232a <_vfiprintf_r+0x1be>
 8012216:	4b54      	ldr	r3, [pc, #336]	; (8012368 <_vfiprintf_r+0x1fc>)
 8012218:	2b00      	cmp	r3, #0
 801221a:	d17d      	bne.n	8012318 <_vfiprintf_r+0x1ac>
 801221c:	9b03      	ldr	r3, [sp, #12]
 801221e:	3307      	adds	r3, #7
 8012220:	f023 0307 	bic.w	r3, r3, #7
 8012224:	3308      	adds	r3, #8
 8012226:	9303      	str	r3, [sp, #12]
 8012228:	9b09      	ldr	r3, [sp, #36]	; 0x24
 801222a:	4443      	add	r3, r8
 801222c:	9309      	str	r3, [sp, #36]	; 0x24
 801222e:	463b      	mov	r3, r7
 8012230:	461c      	mov	r4, r3
 8012232:	f813 2b01 	ldrb.w	r2, [r3], #1
 8012236:	b91a      	cbnz	r2, 8012240 <_vfiprintf_r+0xd4>
 8012238:	ebb4 0907 	subs.w	r9, r4, r7
 801223c:	d00e      	beq.n	801225c <_vfiprintf_r+0xf0>
 801223e:	e002      	b.n	8012246 <_vfiprintf_r+0xda>
 8012240:	2a25      	cmp	r2, #37	; 0x25
 8012242:	d1f5      	bne.n	8012230 <_vfiprintf_r+0xc4>
 8012244:	e7f8      	b.n	8012238 <_vfiprintf_r+0xcc>
 8012246:	4630      	mov	r0, r6
 8012248:	4629      	mov	r1, r5
 801224a:	463a      	mov	r2, r7
 801224c:	464b      	mov	r3, r9
 801224e:	f7ff ff7a 	bl	8012146 <__sfputs_r>
 8012252:	3001      	adds	r0, #1
 8012254:	d076      	beq.n	8012344 <_vfiprintf_r+0x1d8>
 8012256:	9b09      	ldr	r3, [sp, #36]	; 0x24
 8012258:	444b      	add	r3, r9
 801225a:	9309      	str	r3, [sp, #36]	; 0x24
 801225c:	7823      	ldrb	r3, [r4, #0]
 801225e:	2b00      	cmp	r3, #0
 8012260:	d070      	beq.n	8012344 <_vfiprintf_r+0x1d8>
 8012262:	2300      	movs	r3, #0
 8012264:	f04f 32ff 	mov.w	r2, #4294967295
 8012268:	9304      	str	r3, [sp, #16]
 801226a:	9307      	str	r3, [sp, #28]
 801226c:	9205      	str	r2, [sp, #20]
 801226e:	9306      	str	r3, [sp, #24]
 8012270:	f88d 3053 	strb.w	r3, [sp, #83]	; 0x53
 8012274:	931a      	str	r3, [sp, #104]	; 0x68
 8012276:	f104 0901 	add.w	r9, r4, #1
 801227a:	464c      	mov	r4, r9
 801227c:	4f3b      	ldr	r7, [pc, #236]	; (801236c <_vfiprintf_r+0x200>)
 801227e:	7821      	ldrb	r1, [r4, #0]
 8012280:	4638      	mov	r0, r7
 8012282:	2205      	movs	r2, #5
 8012284:	f000 fc94 	bl	8012bb0 <memchr>
 8012288:	f109 0901 	add.w	r9, r9, #1
 801228c:	9b04      	ldr	r3, [sp, #16]
 801228e:	b128      	cbz	r0, 801229c <_vfiprintf_r+0x130>
 8012290:	1bc7      	subs	r7, r0, r7
 8012292:	2001      	movs	r0, #1
 8012294:	40b8      	lsls	r0, r7
 8012296:	4303      	orrs	r3, r0
 8012298:	9304      	str	r3, [sp, #16]
 801229a:	e7ee      	b.n	801227a <_vfiprintf_r+0x10e>
 801229c:	06d9      	lsls	r1, r3, #27
 801229e:	bf44      	itt	mi
 80122a0:	2220      	movmi	r2, #32
 80122a2:	f88d 2053 	strbmi.w	r2, [sp, #83]	; 0x53
 80122a6:	071a      	lsls	r2, r3, #28
 80122a8:	bf44      	itt	mi
 80122aa:	222b      	movmi	r2, #43	; 0x2b
 80122ac:	f88d 2053 	strbmi.w	r2, [sp, #83]	; 0x53
 80122b0:	7822      	ldrb	r2, [r4, #0]
 80122b2:	2a2a      	cmp	r2, #42	; 0x2a
 80122b4:	d08b      	beq.n	80121ce <_vfiprintf_r+0x62>
 80122b6:	9b07      	ldr	r3, [sp, #28]
 80122b8:	4621      	mov	r1, r4
 80122ba:	e005      	b.n	80122c8 <_vfiprintf_r+0x15c>
 80122bc:	4252      	negs	r2, r2
 80122be:	f043 0302 	orr.w	r3, r3, #2
 80122c2:	9207      	str	r2, [sp, #28]
 80122c4:	9304      	str	r3, [sp, #16]
 80122c6:	e789      	b.n	80121dc <_vfiprintf_r+0x70>
 80122c8:	460c      	mov	r4, r1
 80122ca:	3101      	adds	r1, #1
 80122cc:	7822      	ldrb	r2, [r4, #0]
 80122ce:	3a30      	subs	r2, #48	; 0x30
 80122d0:	2a09      	cmp	r2, #9
 80122d2:	d803      	bhi.n	80122dc <_vfiprintf_r+0x170>
 80122d4:	200a      	movs	r0, #10
 80122d6:	fb00 2303 	mla	r3, r0, r3, r2
 80122da:	e7f5      	b.n	80122c8 <_vfiprintf_r+0x15c>
 80122dc:	9307      	str	r3, [sp, #28]
 80122de:	e77e      	b.n	80121de <_vfiprintf_r+0x72>
 80122e0:	7863      	ldrb	r3, [r4, #1]
 80122e2:	2b2a      	cmp	r3, #42	; 0x2a
 80122e4:	d10a      	bne.n	80122fc <_vfiprintf_r+0x190>
 80122e6:	9b03      	ldr	r3, [sp, #12]
 80122e8:	1d1a      	adds	r2, r3, #4
 80122ea:	681b      	ldr	r3, [r3, #0]
 80122ec:	9203      	str	r2, [sp, #12]
 80122ee:	2b00      	cmp	r3, #0
 80122f0:	f104 0402 	add.w	r4, r4, #2
 80122f4:	bfb8      	it	lt
 80122f6:	f04f 33ff 	movlt.w	r3, #4294967295
 80122fa:	e00b      	b.n	8012314 <_vfiprintf_r+0x1a8>
 80122fc:	1c61      	adds	r1, r4, #1
 80122fe:	2300      	movs	r3, #0
 8012300:	460c      	mov	r4, r1
 8012302:	3101      	adds	r1, #1
 8012304:	7822      	ldrb	r2, [r4, #0]
 8012306:	3a30      	subs	r2, #48	; 0x30
 8012308:	2a09      	cmp	r2, #9
 801230a:	d803      	bhi.n	8012314 <_vfiprintf_r+0x1a8>
 801230c:	200a      	movs	r0, #10
 801230e:	fb00 2303 	mla	r3, r0, r3, r2
 8012312:	e7f5      	b.n	8012300 <_vfiprintf_r+0x194>
 8012314:	9305      	str	r3, [sp, #20]
 8012316:	e765      	b.n	80121e4 <_vfiprintf_r+0x78>
 8012318:	ab03      	add	r3, sp, #12
 801231a:	9300      	str	r3, [sp, #0]
 801231c:	4630      	mov	r0, r6
 801231e:	a904      	add	r1, sp, #16
 8012320:	462a      	mov	r2, r5
 8012322:	4b13      	ldr	r3, [pc, #76]	; (8012370 <_vfiprintf_r+0x204>)
 8012324:	f3af 8000 	nop.w
 8012328:	e007      	b.n	801233a <_vfiprintf_r+0x1ce>
 801232a:	ab03      	add	r3, sp, #12
 801232c:	9300      	str	r3, [sp, #0]
 801232e:	4630      	mov	r0, r6
 8012330:	a904      	add	r1, sp, #16
 8012332:	462a      	mov	r2, r5
 8012334:	4b0e      	ldr	r3, [pc, #56]	; (8012370 <_vfiprintf_r+0x204>)
 8012336:	f000 f88f 	bl	8012458 <_printf_i>
 801233a:	f1b0 3fff 	cmp.w	r0, #4294967295
 801233e:	4680      	mov	r8, r0
 8012340:	f47f af72 	bne.w	8012228 <_vfiprintf_r+0xbc>
 8012344:	89ab      	ldrh	r3, [r5, #12]
 8012346:	065b      	lsls	r3, r3, #25
 8012348:	f53f af3e 	bmi.w	80121c8 <_vfiprintf_r+0x5c>
 801234c:	9809      	ldr	r0, [sp, #36]	; 0x24
 801234e:	b01d      	add	sp, #116	; 0x74
 8012350:	e8bd 83f0 	ldmia.w	sp!, {r4, r5, r6, r7, r8, r9, pc}
 8012354:	08013d34 	stmdaeq	r1, {r2, r4, r5, r8, sl, fp, ip, sp}
 8012358:	08013d54 	stmdaeq	r1, {r2, r4, r6, r8, sl, fp, ip, sp}
 801235c:	08013d74 	stmdaeq	r1, {r2, r4, r5, r6, r8, sl, fp, ip, sp}
 8012360:	08013d06 	stmdaeq	r1, {r1, r2, r8, sl, fp, ip, sp}
 8012364:	08013d0a 	stmdaeq	r1, {r1, r3, r8, sl, fp, ip, sp}
 8012368:	00000000 	andeq	r0, r0, r0
 801236c:	08013d00 	stmdaeq	r1, {r8, sl, fp, ip, sp}
 8012370:	08012147 	stmdaeq	r1, {r0, r1, r2, r6, r8, sp}

08012374 <_printf_common>:
 8012374:	e92d 43f8 	stmdb	sp!, {r3, r4, r5, r6, r7, r8, r9, lr}
 8012378:	4615      	mov	r5, r2
 801237a:	461f      	mov	r7, r3
 801237c:	688a      	ldr	r2, [r1, #8]
 801237e:	690b      	ldr	r3, [r1, #16]
 8012380:	f8dd 8020 	ldr.w	r8, [sp, #32]
 8012384:	429a      	cmp	r2, r3
 8012386:	bfa8      	it	ge
 8012388:	4613      	movge	r3, r2
 801238a:	602b      	str	r3, [r5, #0]
 801238c:	f891 2043 	ldrb.w	r2, [r1, #67]	; 0x43
 8012390:	4606      	mov	r6, r0
 8012392:	460c      	mov	r4, r1
 8012394:	b10a      	cbz	r2, 801239a <_printf_common+0x26>
 8012396:	3301      	adds	r3, #1
 8012398:	602b      	str	r3, [r5, #0]
 801239a:	6823      	ldr	r3, [r4, #0]
 801239c:	0699      	lsls	r1, r3, #26
 801239e:	d502      	bpl.n	80123a6 <_printf_common+0x32>
 80123a0:	682b      	ldr	r3, [r5, #0]
 80123a2:	3302      	adds	r3, #2
 80123a4:	602b      	str	r3, [r5, #0]
 80123a6:	6823      	ldr	r3, [r4, #0]
 80123a8:	f013 0906 	ands.w	r9, r3, #6
 80123ac:	d01d      	beq.n	80123ea <_printf_common+0x76>
 80123ae:	f894 3043 	ldrb.w	r3, [r4, #67]	; 0x43
 80123b2:	6822      	ldr	r2, [r4, #0]
 80123b4:	3300      	adds	r3, #0
 80123b6:	bf18      	it	ne
 80123b8:	2301      	movne	r3, #1
 80123ba:	0692      	lsls	r2, r2, #26
 80123bc:	d51f      	bpl.n	80123fe <_printf_common+0x8a>
 80123be:	18e1      	adds	r1, r4, r3
 80123c0:	1c5a      	adds	r2, r3, #1
 80123c2:	2030      	movs	r0, #48	; 0x30
 80123c4:	f881 0043 	strb.w	r0, [r1, #67]	; 0x43
 80123c8:	4422      	add	r2, r4
 80123ca:	f894 1045 	ldrb.w	r1, [r4, #69]	; 0x45
 80123ce:	f882 1043 	strb.w	r1, [r2, #67]	; 0x43
 80123d2:	3302      	adds	r3, #2
 80123d4:	e013      	b.n	80123fe <_printf_common+0x8a>
 80123d6:	4630      	mov	r0, r6
 80123d8:	4639      	mov	r1, r7
 80123da:	f104 0219 	add.w	r2, r4, #25
 80123de:	2301      	movs	r3, #1
 80123e0:	47c0      	blx	r8
 80123e2:	3001      	adds	r0, #1
 80123e4:	d007      	beq.n	80123f6 <_printf_common+0x82>
 80123e6:	f109 0901 	add.w	r9, r9, #1
 80123ea:	68e2      	ldr	r2, [r4, #12]
 80123ec:	682b      	ldr	r3, [r5, #0]
 80123ee:	1ad3      	subs	r3, r2, r3
 80123f0:	4599      	cmp	r9, r3
 80123f2:	dbf0      	blt.n	80123d6 <_printf_common+0x62>
 80123f4:	e7db      	b.n	80123ae <_printf_common+0x3a>
 80123f6:	f04f 30ff 	mov.w	r0, #4294967295
 80123fa:	e8bd 83f8 	ldmia.w	sp!, {r3, r4, r5, r6, r7, r8, r9, pc}
 80123fe:	4630      	mov	r0, r6
 8012400:	4639      	mov	r1, r7
 8012402:	f104 0243 	add.w	r2, r4, #67	; 0x43
 8012406:	47c0      	blx	r8
 8012408:	3001      	adds	r0, #1
 801240a:	d0f4      	beq.n	80123f6 <_printf_common+0x82>
 801240c:	6823      	ldr	r3, [r4, #0]
 801240e:	682a      	ldr	r2, [r5, #0]
 8012410:	68e1      	ldr	r1, [r4, #12]
 8012412:	f003 0306 	and.w	r3, r3, #6
 8012416:	2b04      	cmp	r3, #4
 8012418:	bf08      	it	eq
 801241a:	ebc2 0501 	rsbeq	r5, r2, r1
 801241e:	6923      	ldr	r3, [r4, #16]
 8012420:	68a2      	ldr	r2, [r4, #8]
 8012422:	bf0c      	ite	eq
 8012424:	ea25 75e5 	biceq.w	r5, r5, r5, asr #31
 8012428:	2500      	movne	r5, #0
 801242a:	429a      	cmp	r2, r3
 801242c:	bfc4      	itt	gt
 801242e:	ebc3 0302 	rsbgt	r3, r3, r2
 8012432:	18ed      	addgt	r5, r5, r3
 8012434:	f04f 0900 	mov.w	r9, #0
 8012438:	45a9      	cmp	r9, r5
 801243a:	da0a      	bge.n	8012452 <_printf_common+0xde>
 801243c:	4630      	mov	r0, r6
 801243e:	4639      	mov	r1, r7
 8012440:	f104 021a 	add.w	r2, r4, #26
 8012444:	2301      	movs	r3, #1
 8012446:	47c0      	blx	r8
 8012448:	3001      	adds	r0, #1
 801244a:	d0d4      	beq.n	80123f6 <_printf_common+0x82>
 801244c:	f109 0901 	add.w	r9, r9, #1
 8012450:	e7f2      	b.n	8012438 <_printf_common+0xc4>
 8012452:	2000      	movs	r0, #0
 8012454:	e8bd 83f8 	ldmia.w	sp!, {r3, r4, r5, r6, r7, r8, r9, pc}

08012458 <_printf_i>:
 8012458:	e92d 47ff 	stmdb	sp!, {r0, r1, r2, r3, r4, r5, r6, r7, r8, r9, sl, lr}
 801245c:	7e0e      	ldrb	r6, [r1, #24]
 801245e:	9d0c      	ldr	r5, [sp, #48]	; 0x30
 8012460:	2e6e      	cmp	r6, #110	; 0x6e
 8012462:	4680      	mov	r8, r0
 8012464:	460c      	mov	r4, r1
 8012466:	4691      	mov	r9, r2
 8012468:	469a      	mov	sl, r3
 801246a:	f101 0043 	add.w	r0, r1, #67	; 0x43
 801246e:	f000 80a5 	beq.w	80125bc <_printf_i+0x164>
 8012472:	d811      	bhi.n	8012498 <_printf_i+0x40>
 8012474:	2e63      	cmp	r6, #99	; 0x63
 8012476:	d022      	beq.n	80124be <_printf_i+0x66>
 8012478:	d809      	bhi.n	801248e <_printf_i+0x36>
 801247a:	2e00      	cmp	r6, #0
 801247c:	f000 80af 	beq.w	80125de <_printf_i+0x186>
 8012480:	2e58      	cmp	r6, #88	; 0x58
 8012482:	f040 80bf 	bne.w	8012604 <_printf_i+0x1ac>
 8012486:	f881 6045 	strb.w	r6, [r1, #69]	; 0x45
 801248a:	4a7b      	ldr	r2, [pc, #492]	; (8012678 <_printf_i+0x220>)
 801248c:	e04f      	b.n	801252e <_printf_i+0xd6>
 801248e:	2e64      	cmp	r6, #100	; 0x64
 8012490:	d01e      	beq.n	80124d0 <_printf_i+0x78>
 8012492:	2e69      	cmp	r6, #105	; 0x69
 8012494:	d01c      	beq.n	80124d0 <_printf_i+0x78>
 8012496:	e0b5      	b.n	8012604 <_printf_i+0x1ac>
 8012498:	2e73      	cmp	r6, #115	; 0x73
 801249a:	f000 80a4 	beq.w	80125e6 <_printf_i+0x18e>
 801249e:	d809      	bhi.n	80124b4 <_printf_i+0x5c>
 80124a0:	2e6f      	cmp	r6, #111	; 0x6f
 80124a2:	d02b      	beq.n	80124fc <_printf_i+0xa4>
 80124a4:	2e70      	cmp	r6, #112	; 0x70
 80124a6:	f040 80ad 	bne.w	8012604 <_printf_i+0x1ac>
 80124aa:	680b      	ldr	r3, [r1, #0]
 80124ac:	f043 0320 	orr.w	r3, r3, #32
 80124b0:	600b      	str	r3, [r1, #0]
 80124b2:	e038      	b.n	8012526 <_printf_i+0xce>
 80124b4:	2e75      	cmp	r6, #117	; 0x75
 80124b6:	d021      	beq.n	80124fc <_printf_i+0xa4>
 80124b8:	2e78      	cmp	r6, #120	; 0x78
 80124ba:	d034      	beq.n	8012526 <_printf_i+0xce>
 80124bc:	e0a2      	b.n	8012604 <_printf_i+0x1ac>
 80124be:	682b      	ldr	r3, [r5, #0]
 80124c0:	1d1a      	adds	r2, r3, #4
 80124c2:	681b      	ldr	r3, [r3, #0]
 80124c4:	602a      	str	r2, [r5, #0]
 80124c6:	f101 0742 	add.w	r7, r1, #66	; 0x42
 80124ca:	f881 3042 	strb.w	r3, [r1, #66]	; 0x42
 80124ce:	e09d      	b.n	801260c <_printf_i+0x1b4>
 80124d0:	6822      	ldr	r2, [r4, #0]
 80124d2:	682b      	ldr	r3, [r5, #0]
 80124d4:	f012 0f80 	tst.w	r2, #128	; 0x80
 80124d8:	d003      	beq.n	80124e2 <_printf_i+0x8a>
 80124da:	1d1a      	adds	r2, r3, #4
 80124dc:	602a      	str	r2, [r5, #0]
 80124de:	681d      	ldr	r5, [r3, #0]
 80124e0:	e005      	b.n	80124ee <_printf_i+0x96>
 80124e2:	0651      	lsls	r1, r2, #25
 80124e4:	d5f9      	bpl.n	80124da <_printf_i+0x82>
 80124e6:	1d1a      	adds	r2, r3, #4
 80124e8:	602a      	str	r2, [r5, #0]
 80124ea:	f9b3 5000 	ldrsh.w	r5, [r3]
 80124ee:	2d00      	cmp	r5, #0
 80124f0:	da39      	bge.n	8012566 <_printf_i+0x10e>
 80124f2:	232d      	movs	r3, #45	; 0x2d
 80124f4:	426d      	negs	r5, r5
 80124f6:	f884 3043 	strb.w	r3, [r4, #67]	; 0x43
 80124fa:	e034      	b.n	8012566 <_printf_i+0x10e>
 80124fc:	6822      	ldr	r2, [r4, #0]
 80124fe:	682b      	ldr	r3, [r5, #0]
 8012500:	f012 0f80 	tst.w	r2, #128	; 0x80
 8012504:	d003      	beq.n	801250e <_printf_i+0xb6>
 8012506:	1d1a      	adds	r2, r3, #4
 8012508:	602a      	str	r2, [r5, #0]
 801250a:	681d      	ldr	r5, [r3, #0]
 801250c:	e004      	b.n	8012518 <_printf_i+0xc0>
 801250e:	0652      	lsls	r2, r2, #25
 8012510:	d5f9      	bpl.n	8012506 <_printf_i+0xae>
 8012512:	1d1a      	adds	r2, r3, #4
 8012514:	602a      	str	r2, [r5, #0]
 8012516:	881d      	ldrh	r5, [r3, #0]
 8012518:	7e23      	ldrb	r3, [r4, #24]
 801251a:	4a57      	ldr	r2, [pc, #348]	; (8012678 <_printf_i+0x220>)
 801251c:	2b6f      	cmp	r3, #111	; 0x6f
 801251e:	bf14      	ite	ne
 8012520:	230a      	movne	r3, #10
 8012522:	2308      	moveq	r3, #8
 8012524:	e01b      	b.n	801255e <_printf_i+0x106>
 8012526:	2378      	movs	r3, #120	; 0x78
 8012528:	4a54      	ldr	r2, [pc, #336]	; (801267c <_printf_i+0x224>)
 801252a:	f884 3045 	strb.w	r3, [r4, #69]	; 0x45
 801252e:	6823      	ldr	r3, [r4, #0]
 8012530:	6829      	ldr	r1, [r5, #0]
 8012532:	f013 0f80 	tst.w	r3, #128	; 0x80
 8012536:	f101 0604 	add.w	r6, r1, #4
 801253a:	602e      	str	r6, [r5, #0]
 801253c:	d001      	beq.n	8012542 <_printf_i+0xea>
 801253e:	680d      	ldr	r5, [r1, #0]
 8012540:	e002      	b.n	8012548 <_printf_i+0xf0>
 8012542:	065f      	lsls	r7, r3, #25
 8012544:	d5fb      	bpl.n	801253e <_printf_i+0xe6>
 8012546:	880d      	ldrh	r5, [r1, #0]
 8012548:	07de      	lsls	r6, r3, #31
 801254a:	bf44      	itt	mi
 801254c:	f043 0320 	orrmi.w	r3, r3, #32
 8012550:	6023      	strmi	r3, [r4, #0]
 8012552:	b91d      	cbnz	r5, 801255c <_printf_i+0x104>
 8012554:	6823      	ldr	r3, [r4, #0]
 8012556:	f023 0320 	bic.w	r3, r3, #32
 801255a:	6023      	str	r3, [r4, #0]
 801255c:	2310      	movs	r3, #16
 801255e:	2100      	movs	r1, #0
 8012560:	f884 1043 	strb.w	r1, [r4, #67]	; 0x43
 8012564:	e001      	b.n	801256a <_printf_i+0x112>
 8012566:	4a44      	ldr	r2, [pc, #272]	; (8012678 <_printf_i+0x220>)
 8012568:	230a      	movs	r3, #10
 801256a:	6866      	ldr	r6, [r4, #4]
 801256c:	60a6      	str	r6, [r4, #8]
 801256e:	2e00      	cmp	r6, #0
 8012570:	db03      	blt.n	801257a <_printf_i+0x122>
 8012572:	6821      	ldr	r1, [r4, #0]
 8012574:	f021 0104 	bic.w	r1, r1, #4
 8012578:	6021      	str	r1, [r4, #0]
 801257a:	b905      	cbnz	r5, 801257e <_printf_i+0x126>
 801257c:	b16e      	cbz	r6, 801259a <_printf_i+0x142>
 801257e:	f104 0142 	add.w	r1, r4, #66	; 0x42
 8012582:	fbb5 f6f3 	udiv	r6, r5, r3
 8012586:	fb03 5516 	mls	r5, r3, r6, r5
 801258a:	460f      	mov	r7, r1
 801258c:	5d55      	ldrb	r5, [r2, r5]
 801258e:	f801 5901 	strb.w	r5, [r1], #-1
 8012592:	4635      	mov	r5, r6
 8012594:	2e00      	cmp	r6, #0
 8012596:	d1f4      	bne.n	8012582 <_printf_i+0x12a>
 8012598:	e000      	b.n	801259c <_printf_i+0x144>
 801259a:	4607      	mov	r7, r0
 801259c:	2b08      	cmp	r3, #8
 801259e:	d10a      	bne.n	80125b6 <_printf_i+0x15e>
 80125a0:	6823      	ldr	r3, [r4, #0]
 80125a2:	07dd      	lsls	r5, r3, #31
 80125a4:	d507      	bpl.n	80125b6 <_printf_i+0x15e>
 80125a6:	6862      	ldr	r2, [r4, #4]
 80125a8:	6923      	ldr	r3, [r4, #16]
 80125aa:	429a      	cmp	r2, r3
 80125ac:	dc03      	bgt.n	80125b6 <_printf_i+0x15e>
 80125ae:	2330      	movs	r3, #48	; 0x30
 80125b0:	f807 3c01 	strb.w	r3, [r7, #-1]
 80125b4:	3f01      	subs	r7, #1
 80125b6:	1bc0      	subs	r0, r0, r7
 80125b8:	6120      	str	r0, [r4, #16]
 80125ba:	e02c      	b.n	8012616 <_printf_i+0x1be>
 80125bc:	6809      	ldr	r1, [r1, #0]
 80125be:	682b      	ldr	r3, [r5, #0]
 80125c0:	6962      	ldr	r2, [r4, #20]
 80125c2:	f011 0f80 	tst.w	r1, #128	; 0x80
 80125c6:	d004      	beq.n	80125d2 <_printf_i+0x17a>
 80125c8:	1d19      	adds	r1, r3, #4
 80125ca:	6029      	str	r1, [r5, #0]
 80125cc:	681b      	ldr	r3, [r3, #0]
 80125ce:	601a      	str	r2, [r3, #0]
 80125d0:	e005      	b.n	80125de <_printf_i+0x186>
 80125d2:	0649      	lsls	r1, r1, #25
 80125d4:	d5f8      	bpl.n	80125c8 <_printf_i+0x170>
 80125d6:	1d19      	adds	r1, r3, #4
 80125d8:	6029      	str	r1, [r5, #0]
 80125da:	681b      	ldr	r3, [r3, #0]
 80125dc:	801a      	strh	r2, [r3, #0]
 80125de:	2300      	movs	r3, #0
 80125e0:	6123      	str	r3, [r4, #16]
 80125e2:	4607      	mov	r7, r0
 80125e4:	e017      	b.n	8012616 <_printf_i+0x1be>
 80125e6:	682b      	ldr	r3, [r5, #0]
 80125e8:	1d1a      	adds	r2, r3, #4
 80125ea:	602a      	str	r2, [r5, #0]
 80125ec:	681f      	ldr	r7, [r3, #0]
 80125ee:	4638      	mov	r0, r7
 80125f0:	f000 fc0d 	bl	8012e0e <strlen>
 80125f4:	6863      	ldr	r3, [r4, #4]
 80125f6:	6120      	str	r0, [r4, #16]
 80125f8:	4298      	cmp	r0, r3
 80125fa:	bf88      	it	hi
 80125fc:	6123      	strhi	r3, [r4, #16]
 80125fe:	6923      	ldr	r3, [r4, #16]
 8012600:	6063      	str	r3, [r4, #4]
 8012602:	e005      	b.n	8012610 <_printf_i+0x1b8>
 8012604:	f104 0742 	add.w	r7, r4, #66	; 0x42
 8012608:	f884 6042 	strb.w	r6, [r4, #66]	; 0x42
 801260c:	2301      	movs	r3, #1
 801260e:	6123      	str	r3, [r4, #16]
 8012610:	2300      	movs	r3, #0
 8012612:	f884 3043 	strb.w	r3, [r4, #67]	; 0x43
 8012616:	f8cd a000 	str.w	sl, [sp]
 801261a:	4640      	mov	r0, r8
 801261c:	4621      	mov	r1, r4
 801261e:	aa03      	add	r2, sp, #12
 8012620:	464b      	mov	r3, r9
 8012622:	f7ff fea7 	bl	8012374 <_printf_common>
 8012626:	3001      	adds	r0, #1
 8012628:	d102      	bne.n	8012630 <_printf_i+0x1d8>
 801262a:	f04f 30ff 	mov.w	r0, #4294967295
 801262e:	e01f      	b.n	8012670 <_printf_i+0x218>
 8012630:	4640      	mov	r0, r8
 8012632:	4649      	mov	r1, r9
 8012634:	463a      	mov	r2, r7
 8012636:	6923      	ldr	r3, [r4, #16]
 8012638:	47d0      	blx	sl
 801263a:	3001      	adds	r0, #1
 801263c:	d0f5      	beq.n	801262a <_printf_i+0x1d2>
 801263e:	6823      	ldr	r3, [r4, #0]
 8012640:	079b      	lsls	r3, r3, #30
 8012642:	d405      	bmi.n	8012650 <_printf_i+0x1f8>
 8012644:	68e0      	ldr	r0, [r4, #12]
 8012646:	9b03      	ldr	r3, [sp, #12]
 8012648:	4298      	cmp	r0, r3
 801264a:	bfb8      	it	lt
 801264c:	4618      	movlt	r0, r3
 801264e:	e00f      	b.n	8012670 <_printf_i+0x218>
 8012650:	2500      	movs	r5, #0
 8012652:	68e2      	ldr	r2, [r4, #12]
 8012654:	9b03      	ldr	r3, [sp, #12]
 8012656:	1ad3      	subs	r3, r2, r3
 8012658:	429d      	cmp	r5, r3
 801265a:	daf3      	bge.n	8012644 <_printf_i+0x1ec>
 801265c:	4640      	mov	r0, r8
 801265e:	4649      	mov	r1, r9
 8012660:	f104 0219 	add.w	r2, r4, #25
 8012664:	2301      	movs	r3, #1
 8012666:	47d0      	blx	sl
 8012668:	3001      	adds	r0, #1
 801266a:	d0de      	beq.n	801262a <_printf_i+0x1d2>
 801266c:	3501      	adds	r5, #1
 801266e:	e7f0      	b.n	8012652 <_printf_i+0x1fa>
 8012670:	b004      	add	sp, #16
 8012672:	e8bd 87f0 	ldmia.w	sp!, {r4, r5, r6, r7, r8, r9, sl, pc}
 8012676:	bf00      	nop
 8012678:	08013d11 	stmdaeq	r1, {r0, r4, r8, sl, fp, ip, sp}
 801267c:	08013d22 	stmdaeq	r1, {r1, r5, r8, sl, fp, ip, sp}

08012680 <viprintf>:
 8012680:	4b09      	ldr	r3, [pc, #36]	; (80126a8 <viprintf+0x28>)
 8012682:	e92d 41f0 	stmdb	sp!, {r4, r5, r6, r7, r8, lr}
 8012686:	681c      	ldr	r4, [r3, #0]
 8012688:	4607      	mov	r7, r0
 801268a:	460e      	mov	r6, r1
 801268c:	b124      	cbz	r4, 8012698 <viprintf+0x18>
 801268e:	69a5      	ldr	r5, [r4, #24]
 8012690:	b915      	cbnz	r5, 8012698 <viprintf+0x18>
 8012692:	4620      	mov	r0, r4
 8012694:	f000 f9d4 	bl	8012a40 <__sinit>
 8012698:	4620      	mov	r0, r4
 801269a:	68a1      	ldr	r1, [r4, #8]
 801269c:	463a      	mov	r2, r7
 801269e:	4633      	mov	r3, r6
 80126a0:	e8bd 41f0 	ldmia.w	sp!, {r4, r5, r6, r7, r8, lr}
 80126a4:	f7ff bd62 	b.w	801216c <_vfiprintf_r>
 80126a8:	100017d0 	ldrdne	r1, [r0], -r0

080126ac <__swbuf_r>:
 80126ac:	b570      	push	{r4, r5, r6, lr}
 80126ae:	460e      	mov	r6, r1
 80126b0:	4614      	mov	r4, r2
 80126b2:	4605      	mov	r5, r0
 80126b4:	b118      	cbz	r0, 80126be <__swbuf_r+0x12>
 80126b6:	6983      	ldr	r3, [r0, #24]
 80126b8:	b90b      	cbnz	r3, 80126be <__swbuf_r+0x12>
 80126ba:	f000 f9c1 	bl	8012a40 <__sinit>
 80126be:	4b22      	ldr	r3, [pc, #136]	; (8012748 <__swbuf_r+0x9c>)
 80126c0:	429c      	cmp	r4, r3
 80126c2:	d101      	bne.n	80126c8 <__swbuf_r+0x1c>
 80126c4:	686c      	ldr	r4, [r5, #4]
 80126c6:	e008      	b.n	80126da <__swbuf_r+0x2e>
 80126c8:	4b20      	ldr	r3, [pc, #128]	; (801274c <__swbuf_r+0xa0>)
 80126ca:	429c      	cmp	r4, r3
 80126cc:	d101      	bne.n	80126d2 <__swbuf_r+0x26>
 80126ce:	68ac      	ldr	r4, [r5, #8]
 80126d0:	e003      	b.n	80126da <__swbuf_r+0x2e>
 80126d2:	4b1f      	ldr	r3, [pc, #124]	; (8012750 <__swbuf_r+0xa4>)
 80126d4:	429c      	cmp	r4, r3
 80126d6:	bf08      	it	eq
 80126d8:	68ec      	ldreq	r4, [r5, #12]
 80126da:	69a3      	ldr	r3, [r4, #24]
 80126dc:	60a3      	str	r3, [r4, #8]
 80126de:	89a3      	ldrh	r3, [r4, #12]
 80126e0:	071a      	lsls	r2, r3, #28
 80126e2:	d509      	bpl.n	80126f8 <__swbuf_r+0x4c>
 80126e4:	6923      	ldr	r3, [r4, #16]
 80126e6:	b13b      	cbz	r3, 80126f8 <__swbuf_r+0x4c>
 80126e8:	6923      	ldr	r3, [r4, #16]
 80126ea:	6820      	ldr	r0, [r4, #0]
 80126ec:	1ac0      	subs	r0, r0, r3
 80126ee:	6963      	ldr	r3, [r4, #20]
 80126f0:	4298      	cmp	r0, r3
 80126f2:	b2f6      	uxtb	r6, r6
 80126f4:	db0f      	blt.n	8012716 <__swbuf_r+0x6a>
 80126f6:	e008      	b.n	801270a <__swbuf_r+0x5e>
 80126f8:	4628      	mov	r0, r5
 80126fa:	4621      	mov	r1, r4
 80126fc:	f000 f82a 	bl	8012754 <__swsetup_r>
 8012700:	2800      	cmp	r0, #0
 8012702:	d0f1      	beq.n	80126e8 <__swbuf_r+0x3c>
 8012704:	f04f 30ff 	mov.w	r0, #4294967295
 8012708:	bd70      	pop	{r4, r5, r6, pc}
 801270a:	4628      	mov	r0, r5
 801270c:	4621      	mov	r1, r4
 801270e:	f000 f919 	bl	8012944 <_fflush_r>
 8012712:	2800      	cmp	r0, #0
 8012714:	d1f6      	bne.n	8012704 <__swbuf_r+0x58>
 8012716:	68a3      	ldr	r3, [r4, #8]
 8012718:	3b01      	subs	r3, #1
 801271a:	60a3      	str	r3, [r4, #8]
 801271c:	6823      	ldr	r3, [r4, #0]
 801271e:	1c5a      	adds	r2, r3, #1
 8012720:	6022      	str	r2, [r4, #0]
 8012722:	701e      	strb	r6, [r3, #0]
 8012724:	6963      	ldr	r3, [r4, #20]
 8012726:	3001      	adds	r0, #1
 8012728:	4298      	cmp	r0, r3
 801272a:	d004      	beq.n	8012736 <__swbuf_r+0x8a>
 801272c:	89a3      	ldrh	r3, [r4, #12]
 801272e:	07db      	lsls	r3, r3, #31
 8012730:	d507      	bpl.n	8012742 <__swbuf_r+0x96>
 8012732:	2e0a      	cmp	r6, #10
 8012734:	d105      	bne.n	8012742 <__swbuf_r+0x96>
 8012736:	4628      	mov	r0, r5
 8012738:	4621      	mov	r1, r4
 801273a:	f000 f903 	bl	8012944 <_fflush_r>
 801273e:	2800      	cmp	r0, #0
 8012740:	d1e0      	bne.n	8012704 <__swbuf_r+0x58>
 8012742:	4630      	mov	r0, r6
 8012744:	bd70      	pop	{r4, r5, r6, pc}
 8012746:	bf00      	nop
 8012748:	08013d34 	stmdaeq	r1, {r2, r4, r5, r8, sl, fp, ip, sp}
 801274c:	08013d54 	stmdaeq	r1, {r2, r4, r6, r8, sl, fp, ip, sp}
 8012750:	08013d74 	stmdaeq	r1, {r2, r4, r5, r6, r8, sl, fp, ip, sp}

08012754 <__swsetup_r>:
 8012754:	4b32      	ldr	r3, [pc, #200]	; (8012820 <__swsetup_r+0xcc>)
 8012756:	b570      	push	{r4, r5, r6, lr}
 8012758:	681d      	ldr	r5, [r3, #0]
 801275a:	4606      	mov	r6, r0
 801275c:	460c      	mov	r4, r1
 801275e:	b125      	cbz	r5, 801276a <__swsetup_r+0x16>
 8012760:	69ab      	ldr	r3, [r5, #24]
 8012762:	b913      	cbnz	r3, 801276a <__swsetup_r+0x16>
 8012764:	4628      	mov	r0, r5
 8012766:	f000 f96b 	bl	8012a40 <__sinit>
 801276a:	4b2e      	ldr	r3, [pc, #184]	; (8012824 <__swsetup_r+0xd0>)
 801276c:	429c      	cmp	r4, r3
 801276e:	d101      	bne.n	8012774 <__swsetup_r+0x20>
 8012770:	686c      	ldr	r4, [r5, #4]
 8012772:	e008      	b.n	8012786 <__swsetup_r+0x32>
 8012774:	4b2c      	ldr	r3, [pc, #176]	; (8012828 <__swsetup_r+0xd4>)
 8012776:	429c      	cmp	r4, r3
 8012778:	d101      	bne.n	801277e <__swsetup_r+0x2a>
 801277a:	68ac      	ldr	r4, [r5, #8]
 801277c:	e003      	b.n	8012786 <__swsetup_r+0x32>
 801277e:	4b2b      	ldr	r3, [pc, #172]	; (801282c <__swsetup_r+0xd8>)
 8012780:	429c      	cmp	r4, r3
 8012782:	bf08      	it	eq
 8012784:	68ec      	ldreq	r4, [r5, #12]
 8012786:	89a2      	ldrh	r2, [r4, #12]
 8012788:	b293      	uxth	r3, r2
 801278a:	0719      	lsls	r1, r3, #28
 801278c:	d420      	bmi.n	80127d0 <__swsetup_r+0x7c>
 801278e:	06dd      	lsls	r5, r3, #27
 8012790:	d405      	bmi.n	801279e <__swsetup_r+0x4a>
 8012792:	2309      	movs	r3, #9
 8012794:	f042 0240 	orr.w	r2, r2, #64	; 0x40
 8012798:	6033      	str	r3, [r6, #0]
 801279a:	81a2      	strh	r2, [r4, #12]
 801279c:	e03b      	b.n	8012816 <__swsetup_r+0xc2>
 801279e:	0758      	lsls	r0, r3, #29
 80127a0:	d512      	bpl.n	80127c8 <__swsetup_r+0x74>
 80127a2:	6b61      	ldr	r1, [r4, #52]	; 0x34
 80127a4:	b141      	cbz	r1, 80127b8 <__swsetup_r+0x64>
 80127a6:	f104 0344 	add.w	r3, r4, #68	; 0x44
 80127aa:	4299      	cmp	r1, r3
 80127ac:	d002      	beq.n	80127b4 <__swsetup_r+0x60>
 80127ae:	4630      	mov	r0, r6
 80127b0:	f000 fa0e 	bl	8012bd0 <_free_r>
 80127b4:	2300      	movs	r3, #0
 80127b6:	6363      	str	r3, [r4, #52]	; 0x34
 80127b8:	89a3      	ldrh	r3, [r4, #12]
 80127ba:	f023 0324 	bic.w	r3, r3, #36	; 0x24
 80127be:	81a3      	strh	r3, [r4, #12]
 80127c0:	2300      	movs	r3, #0
 80127c2:	6063      	str	r3, [r4, #4]
 80127c4:	6923      	ldr	r3, [r4, #16]
 80127c6:	6023      	str	r3, [r4, #0]
 80127c8:	89a3      	ldrh	r3, [r4, #12]
 80127ca:	f043 0308 	orr.w	r3, r3, #8
 80127ce:	81a3      	strh	r3, [r4, #12]
 80127d0:	6923      	ldr	r3, [r4, #16]
 80127d2:	b94b      	cbnz	r3, 80127e8 <__swsetup_r+0x94>
 80127d4:	89a3      	ldrh	r3, [r4, #12]
 80127d6:	f403 7320 	and.w	r3, r3, #640	; 0x280
 80127da:	f5b3 7f00 	cmp.w	r3, #512	; 0x200
 80127de:	d003      	beq.n	80127e8 <__swsetup_r+0x94>
 80127e0:	4630      	mov	r0, r6
 80127e2:	4621      	mov	r1, r4
 80127e4:	f000 f996 	bl	8012b14 <__smakebuf_r>
 80127e8:	89a3      	ldrh	r3, [r4, #12]
 80127ea:	f013 0201 	ands.w	r2, r3, #1
 80127ee:	d005      	beq.n	80127fc <__swsetup_r+0xa8>
 80127f0:	2200      	movs	r2, #0
 80127f2:	60a2      	str	r2, [r4, #8]
 80127f4:	6962      	ldr	r2, [r4, #20]
 80127f6:	4252      	negs	r2, r2
 80127f8:	61a2      	str	r2, [r4, #24]
 80127fa:	e003      	b.n	8012804 <__swsetup_r+0xb0>
 80127fc:	0799      	lsls	r1, r3, #30
 80127fe:	bf58      	it	pl
 8012800:	6962      	ldrpl	r2, [r4, #20]
 8012802:	60a2      	str	r2, [r4, #8]
 8012804:	6922      	ldr	r2, [r4, #16]
 8012806:	b94a      	cbnz	r2, 801281c <__swsetup_r+0xc8>
 8012808:	f003 0080 	and.w	r0, r3, #128	; 0x80
 801280c:	b280      	uxth	r0, r0
 801280e:	b130      	cbz	r0, 801281e <__swsetup_r+0xca>
 8012810:	f043 0340 	orr.w	r3, r3, #64	; 0x40
 8012814:	81a3      	strh	r3, [r4, #12]
 8012816:	f04f 30ff 	mov.w	r0, #4294967295
 801281a:	bd70      	pop	{r4, r5, r6, pc}
 801281c:	2000      	movs	r0, #0
 801281e:	bd70      	pop	{r4, r5, r6, pc}
 8012820:	100017d0 	ldrdne	r1, [r0], -r0
 8012824:	08013d34 	stmdaeq	r1, {r2, r4, r5, r8, sl, fp, ip, sp}
 8012828:	08013d54 	stmdaeq	r1, {r2, r4, r6, r8, sl, fp, ip, sp}
 801282c:	08013d74 	stmdaeq	r1, {r2, r4, r5, r6, r8, sl, fp, ip, sp}

08012830 <abort>:
 8012830:	b508      	push	{r3, lr}
 8012832:	2006      	movs	r0, #6
 8012834:	f000 fa8c 	bl	8012d50 <raise>
 8012838:	2001      	movs	r0, #1
 801283a:	f7ff fb60 	bl	8011efe <_exit>

0801283e <__sflush_r>:
 801283e:	898a      	ldrh	r2, [r1, #12]
 8012840:	e92d 41f0 	stmdb	sp!, {r4, r5, r6, r7, r8, lr}
 8012844:	4605      	mov	r5, r0
 8012846:	0710      	lsls	r0, r2, #28
 8012848:	460c      	mov	r4, r1
 801284a:	d457      	bmi.n	80128fc <__sflush_r+0xbe>
 801284c:	684b      	ldr	r3, [r1, #4]
 801284e:	2b00      	cmp	r3, #0
 8012850:	dc02      	bgt.n	8012858 <__sflush_r+0x1a>
 8012852:	6c0b      	ldr	r3, [r1, #64]	; 0x40
 8012854:	2b00      	cmp	r3, #0
 8012856:	dd18      	ble.n	801288a <__sflush_r+0x4c>
 8012858:	6ae6      	ldr	r6, [r4, #44]	; 0x2c
 801285a:	b1b6      	cbz	r6, 801288a <__sflush_r+0x4c>
 801285c:	f402 5280 	and.w	r2, r2, #4096	; 0x1000
 8012860:	2300      	movs	r3, #0
 8012862:	b292      	uxth	r2, r2
 8012864:	682f      	ldr	r7, [r5, #0]
 8012866:	602b      	str	r3, [r5, #0]
 8012868:	b10a      	cbz	r2, 801286e <__sflush_r+0x30>
 801286a:	6d62      	ldr	r2, [r4, #84]	; 0x54
 801286c:	e010      	b.n	8012890 <__sflush_r+0x52>
 801286e:	6a21      	ldr	r1, [r4, #32]
 8012870:	4628      	mov	r0, r5
 8012872:	2301      	movs	r3, #1
 8012874:	47b0      	blx	r6
 8012876:	1c41      	adds	r1, r0, #1
 8012878:	4602      	mov	r2, r0
 801287a:	d109      	bne.n	8012890 <__sflush_r+0x52>
 801287c:	682b      	ldr	r3, [r5, #0]
 801287e:	b13b      	cbz	r3, 8012890 <__sflush_r+0x52>
 8012880:	2b1d      	cmp	r3, #29
 8012882:	d001      	beq.n	8012888 <__sflush_r+0x4a>
 8012884:	2b16      	cmp	r3, #22
 8012886:	d146      	bne.n	8012916 <__sflush_r+0xd8>
 8012888:	602f      	str	r7, [r5, #0]
 801288a:	2000      	movs	r0, #0
 801288c:	e8bd 81f0 	ldmia.w	sp!, {r4, r5, r6, r7, r8, pc}
 8012890:	89a3      	ldrh	r3, [r4, #12]
 8012892:	075b      	lsls	r3, r3, #29
 8012894:	d505      	bpl.n	80128a2 <__sflush_r+0x64>
 8012896:	6863      	ldr	r3, [r4, #4]
 8012898:	1ad2      	subs	r2, r2, r3
 801289a:	6b63      	ldr	r3, [r4, #52]	; 0x34
 801289c:	b10b      	cbz	r3, 80128a2 <__sflush_r+0x64>
 801289e:	6c23      	ldr	r3, [r4, #64]	; 0x40
 80128a0:	1ad2      	subs	r2, r2, r3
 80128a2:	6ae6      	ldr	r6, [r4, #44]	; 0x2c
 80128a4:	6a21      	ldr	r1, [r4, #32]
 80128a6:	4628      	mov	r0, r5
 80128a8:	2300      	movs	r3, #0
 80128aa:	47b0      	blx	r6
 80128ac:	1c46      	adds	r6, r0, #1
 80128ae:	89a2      	ldrh	r2, [r4, #12]
 80128b0:	d105      	bne.n	80128be <__sflush_r+0x80>
 80128b2:	682b      	ldr	r3, [r5, #0]
 80128b4:	b11b      	cbz	r3, 80128be <__sflush_r+0x80>
 80128b6:	2b1d      	cmp	r3, #29
 80128b8:	d001      	beq.n	80128be <__sflush_r+0x80>
 80128ba:	2b16      	cmp	r3, #22
 80128bc:	d119      	bne.n	80128f2 <__sflush_r+0xb4>
 80128be:	2300      	movs	r3, #0
 80128c0:	6063      	str	r3, [r4, #4]
 80128c2:	04d1      	lsls	r1, r2, #19
 80128c4:	6923      	ldr	r3, [r4, #16]
 80128c6:	6023      	str	r3, [r4, #0]
 80128c8:	d504      	bpl.n	80128d4 <__sflush_r+0x96>
 80128ca:	1c42      	adds	r2, r0, #1
 80128cc:	d101      	bne.n	80128d2 <__sflush_r+0x94>
 80128ce:	682b      	ldr	r3, [r5, #0]
 80128d0:	b903      	cbnz	r3, 80128d4 <__sflush_r+0x96>
 80128d2:	6560      	str	r0, [r4, #84]	; 0x54
 80128d4:	6b61      	ldr	r1, [r4, #52]	; 0x34
 80128d6:	602f      	str	r7, [r5, #0]
 80128d8:	2900      	cmp	r1, #0
 80128da:	d0d6      	beq.n	801288a <__sflush_r+0x4c>
 80128dc:	f104 0344 	add.w	r3, r4, #68	; 0x44
 80128e0:	4299      	cmp	r1, r3
 80128e2:	d002      	beq.n	80128ea <__sflush_r+0xac>
 80128e4:	4628      	mov	r0, r5
 80128e6:	f000 f973 	bl	8012bd0 <_free_r>
 80128ea:	2000      	movs	r0, #0
 80128ec:	6360      	str	r0, [r4, #52]	; 0x34
 80128ee:	e8bd 81f0 	ldmia.w	sp!, {r4, r5, r6, r7, r8, pc}
 80128f2:	f042 0240 	orr.w	r2, r2, #64	; 0x40
 80128f6:	81a2      	strh	r2, [r4, #12]
 80128f8:	e8bd 81f0 	ldmia.w	sp!, {r4, r5, r6, r7, r8, pc}
 80128fc:	690e      	ldr	r6, [r1, #16]
 80128fe:	2e00      	cmp	r6, #0
 8012900:	d0c3      	beq.n	801288a <__sflush_r+0x4c>
 8012902:	680b      	ldr	r3, [r1, #0]
 8012904:	600e      	str	r6, [r1, #0]
 8012906:	ebc6 0803 	rsb	r8, r6, r3
 801290a:	0793      	lsls	r3, r2, #30
 801290c:	bf0c      	ite	eq
 801290e:	694b      	ldreq	r3, [r1, #20]
 8012910:	2300      	movne	r3, #0
 8012912:	608b      	str	r3, [r1, #8]
 8012914:	e012      	b.n	801293c <__sflush_r+0xfe>
 8012916:	89a3      	ldrh	r3, [r4, #12]
 8012918:	f043 0340 	orr.w	r3, r3, #64	; 0x40
 801291c:	81a3      	strh	r3, [r4, #12]
 801291e:	f04f 30ff 	mov.w	r0, #4294967295
 8012922:	e8bd 81f0 	ldmia.w	sp!, {r4, r5, r6, r7, r8, pc}
 8012926:	6aa7      	ldr	r7, [r4, #40]	; 0x28
 8012928:	6a21      	ldr	r1, [r4, #32]
 801292a:	4628      	mov	r0, r5
 801292c:	4632      	mov	r2, r6
 801292e:	4643      	mov	r3, r8
 8012930:	47b8      	blx	r7
 8012932:	2800      	cmp	r0, #0
 8012934:	ddef      	ble.n	8012916 <__sflush_r+0xd8>
 8012936:	4406      	add	r6, r0
 8012938:	ebc0 0808 	rsb	r8, r0, r8
 801293c:	f1b8 0f00 	cmp.w	r8, #0
 8012940:	dcf1      	bgt.n	8012926 <__sflush_r+0xe8>
 8012942:	e7a2      	b.n	801288a <__sflush_r+0x4c>

08012944 <_fflush_r>:
 8012944:	b538      	push	{r3, r4, r5, lr}
 8012946:	690b      	ldr	r3, [r1, #16]
 8012948:	4605      	mov	r5, r0
 801294a:	460c      	mov	r4, r1
 801294c:	b1db      	cbz	r3, 8012986 <_fflush_r+0x42>
 801294e:	b118      	cbz	r0, 8012958 <_fflush_r+0x14>
 8012950:	6983      	ldr	r3, [r0, #24]
 8012952:	b90b      	cbnz	r3, 8012958 <_fflush_r+0x14>
 8012954:	f000 f874 	bl	8012a40 <__sinit>
 8012958:	4b0c      	ldr	r3, [pc, #48]	; (801298c <_fflush_r+0x48>)
 801295a:	429c      	cmp	r4, r3
 801295c:	d101      	bne.n	8012962 <_fflush_r+0x1e>
 801295e:	686c      	ldr	r4, [r5, #4]
 8012960:	e008      	b.n	8012974 <_fflush_r+0x30>
 8012962:	4b0b      	ldr	r3, [pc, #44]	; (8012990 <_fflush_r+0x4c>)
 8012964:	429c      	cmp	r4, r3
 8012966:	d101      	bne.n	801296c <_fflush_r+0x28>
 8012968:	68ac      	ldr	r4, [r5, #8]
 801296a:	e003      	b.n	8012974 <_fflush_r+0x30>
 801296c:	4b09      	ldr	r3, [pc, #36]	; (8012994 <_fflush_r+0x50>)
 801296e:	429c      	cmp	r4, r3
 8012970:	bf08      	it	eq
 8012972:	68ec      	ldreq	r4, [r5, #12]
 8012974:	f9b4 300c 	ldrsh.w	r3, [r4, #12]
 8012978:	b12b      	cbz	r3, 8012986 <_fflush_r+0x42>
 801297a:	4628      	mov	r0, r5
 801297c:	4621      	mov	r1, r4
 801297e:	e8bd 4038 	ldmia.w	sp!, {r3, r4, r5, lr}
 8012982:	f7ff bf5c 	b.w	801283e <__sflush_r>
 8012986:	2000      	movs	r0, #0
 8012988:	bd38      	pop	{r3, r4, r5, pc}
 801298a:	bf00      	nop
 801298c:	08013d34 	stmdaeq	r1, {r2, r4, r5, r8, sl, fp, ip, sp}
 8012990:	08013d54 	stmdaeq	r1, {r2, r4, r6, r8, sl, fp, ip, sp}
 8012994:	08013d74 	stmdaeq	r1, {r2, r4, r5, r6, r8, sl, fp, ip, sp}

08012998 <_cleanup_r>:
 8012998:	b5f8      	push	{r3, r4, r5, r6, r7, lr}
 801299a:	4607      	mov	r7, r0
 801299c:	f100 0448 	add.w	r4, r0, #72	; 0x48
 80129a0:	b194      	cbz	r4, 80129c8 <_cleanup_r+0x30>
 80129a2:	68a5      	ldr	r5, [r4, #8]
 80129a4:	6866      	ldr	r6, [r4, #4]
 80129a6:	3e01      	subs	r6, #1
 80129a8:	d40c      	bmi.n	80129c4 <_cleanup_r+0x2c>
 80129aa:	89ab      	ldrh	r3, [r5, #12]
 80129ac:	2b01      	cmp	r3, #1
 80129ae:	d907      	bls.n	80129c0 <_cleanup_r+0x28>
 80129b0:	f9b5 300e 	ldrsh.w	r3, [r5, #14]
 80129b4:	3301      	adds	r3, #1
 80129b6:	d003      	beq.n	80129c0 <_cleanup_r+0x28>
 80129b8:	4638      	mov	r0, r7
 80129ba:	4629      	mov	r1, r5
 80129bc:	f7ff ffc2 	bl	8012944 <_fflush_r>
 80129c0:	3568      	adds	r5, #104	; 0x68
 80129c2:	e7f0      	b.n	80129a6 <_cleanup_r+0xe>
 80129c4:	6824      	ldr	r4, [r4, #0]
 80129c6:	e7eb      	b.n	80129a0 <_cleanup_r+0x8>
 80129c8:	bdf8      	pop	{r3, r4, r5, r6, r7, pc}
	...

080129cc <std.isra.0>:
 80129cc:	2300      	movs	r3, #0
 80129ce:	b510      	push	{r4, lr}
 80129d0:	4604      	mov	r4, r0
 80129d2:	6003      	str	r3, [r0, #0]
 80129d4:	6043      	str	r3, [r0, #4]
 80129d6:	6083      	str	r3, [r0, #8]
 80129d8:	8181      	strh	r1, [r0, #12]
 80129da:	6643      	str	r3, [r0, #100]	; 0x64
 80129dc:	81c2      	strh	r2, [r0, #14]
 80129de:	6103      	str	r3, [r0, #16]
 80129e0:	6143      	str	r3, [r0, #20]
 80129e2:	6183      	str	r3, [r0, #24]
 80129e4:	4619      	mov	r1, r3
 80129e6:	305c      	adds	r0, #92	; 0x5c
 80129e8:	2208      	movs	r2, #8
 80129ea:	f7ff fb8e 	bl	801210a <memset>
 80129ee:	4b05      	ldr	r3, [pc, #20]	; (8012a04 <std.isra.0+0x38>)
 80129f0:	6263      	str	r3, [r4, #36]	; 0x24
 80129f2:	4b05      	ldr	r3, [pc, #20]	; (8012a08 <std.isra.0+0x3c>)
 80129f4:	62a3      	str	r3, [r4, #40]	; 0x28
 80129f6:	4b05      	ldr	r3, [pc, #20]	; (8012a0c <std.isra.0+0x40>)
 80129f8:	62e3      	str	r3, [r4, #44]	; 0x2c
 80129fa:	4b05      	ldr	r3, [pc, #20]	; (8012a10 <std.isra.0+0x44>)
 80129fc:	6224      	str	r4, [r4, #32]
 80129fe:	6323      	str	r3, [r4, #48]	; 0x30
 8012a00:	bd10      	pop	{r4, pc}
 8012a02:	bf00      	nop
 8012a04:	08012d89 	stmdaeq	r1, {r0, r3, r7, r8, sl, fp, sp}
 8012a08:	08012dab 	stmdaeq	r1, {r0, r1, r3, r5, r7, r8, sl, fp, sp}
 8012a0c:	08012de3 	stmdaeq	r1, {r0, r1, r5, r6, r7, r8, sl, fp, sp}
 8012a10:	08012e07 	stmdaeq	r1, {r0, r1, r2, r9, sl, fp, sp}

08012a14 <__sfmoreglue>:
 8012a14:	b570      	push	{r4, r5, r6, lr}
 8012a16:	1e4b      	subs	r3, r1, #1
 8012a18:	2568      	movs	r5, #104	; 0x68
 8012a1a:	435d      	muls	r5, r3
 8012a1c:	460e      	mov	r6, r1
 8012a1e:	f105 0174 	add.w	r1, r5, #116	; 0x74
 8012a22:	f000 f919 	bl	8012c58 <_malloc_r>
 8012a26:	4604      	mov	r4, r0
 8012a28:	b140      	cbz	r0, 8012a3c <__sfmoreglue+0x28>
 8012a2a:	2100      	movs	r1, #0
 8012a2c:	e880 0042 	stmia.w	r0, {r1, r6}
 8012a30:	300c      	adds	r0, #12
 8012a32:	60a0      	str	r0, [r4, #8]
 8012a34:	f105 0268 	add.w	r2, r5, #104	; 0x68
 8012a38:	f7ff fb67 	bl	801210a <memset>
 8012a3c:	4620      	mov	r0, r4
 8012a3e:	bd70      	pop	{r4, r5, r6, pc}

08012a40 <__sinit>:
 8012a40:	6983      	ldr	r3, [r0, #24]
 8012a42:	b510      	push	{r4, lr}
 8012a44:	4604      	mov	r4, r0
 8012a46:	bb33      	cbnz	r3, 8012a96 <__sinit+0x56>
 8012a48:	6483      	str	r3, [r0, #72]	; 0x48
 8012a4a:	64c3      	str	r3, [r0, #76]	; 0x4c
 8012a4c:	6503      	str	r3, [r0, #80]	; 0x50
 8012a4e:	4b12      	ldr	r3, [pc, #72]	; (8012a98 <__sinit+0x58>)
 8012a50:	4a12      	ldr	r2, [pc, #72]	; (8012a9c <__sinit+0x5c>)
 8012a52:	681b      	ldr	r3, [r3, #0]
 8012a54:	6282      	str	r2, [r0, #40]	; 0x28
 8012a56:	4298      	cmp	r0, r3
 8012a58:	bf04      	itt	eq
 8012a5a:	2301      	moveq	r3, #1
 8012a5c:	6183      	streq	r3, [r0, #24]
 8012a5e:	f000 f81f 	bl	8012aa0 <__sfp>
 8012a62:	6060      	str	r0, [r4, #4]
 8012a64:	4620      	mov	r0, r4
 8012a66:	f000 f81b 	bl	8012aa0 <__sfp>
 8012a6a:	60a0      	str	r0, [r4, #8]
 8012a6c:	4620      	mov	r0, r4
 8012a6e:	f000 f817 	bl	8012aa0 <__sfp>
 8012a72:	2104      	movs	r1, #4
 8012a74:	60e0      	str	r0, [r4, #12]
 8012a76:	2200      	movs	r2, #0
 8012a78:	6860      	ldr	r0, [r4, #4]
 8012a7a:	f7ff ffa7 	bl	80129cc <std.isra.0>
 8012a7e:	68a0      	ldr	r0, [r4, #8]
 8012a80:	2109      	movs	r1, #9
 8012a82:	2201      	movs	r2, #1
 8012a84:	f7ff ffa2 	bl	80129cc <std.isra.0>
 8012a88:	68e0      	ldr	r0, [r4, #12]
 8012a8a:	2112      	movs	r1, #18
 8012a8c:	2202      	movs	r2, #2
 8012a8e:	f7ff ff9d 	bl	80129cc <std.isra.0>
 8012a92:	2301      	movs	r3, #1
 8012a94:	61a3      	str	r3, [r4, #24]
 8012a96:	bd10      	pop	{r4, pc}
 8012a98:	08013cfc 	stmdaeq	r1, {r2, r3, r4, r5, r6, r7, sl, fp, ip, sp}
 8012a9c:	08012999 	stmdaeq	r1, {r0, r3, r4, r7, r8, fp, sp}

08012aa0 <__sfp>:
 8012aa0:	b5f8      	push	{r3, r4, r5, r6, r7, lr}
 8012aa2:	4b1b      	ldr	r3, [pc, #108]	; (8012b10 <__sfp+0x70>)
 8012aa4:	681e      	ldr	r6, [r3, #0]
 8012aa6:	69b3      	ldr	r3, [r6, #24]
 8012aa8:	4607      	mov	r7, r0
 8012aaa:	b913      	cbnz	r3, 8012ab2 <__sfp+0x12>
 8012aac:	4630      	mov	r0, r6
 8012aae:	f7ff ffc7 	bl	8012a40 <__sinit>
 8012ab2:	3648      	adds	r6, #72	; 0x48
 8012ab4:	68b4      	ldr	r4, [r6, #8]
 8012ab6:	6873      	ldr	r3, [r6, #4]
 8012ab8:	3b01      	subs	r3, #1
 8012aba:	d404      	bmi.n	8012ac6 <__sfp+0x26>
 8012abc:	f9b4 500c 	ldrsh.w	r5, [r4, #12]
 8012ac0:	b175      	cbz	r5, 8012ae0 <__sfp+0x40>
 8012ac2:	3468      	adds	r4, #104	; 0x68
 8012ac4:	e7f8      	b.n	8012ab8 <__sfp+0x18>
 8012ac6:	6833      	ldr	r3, [r6, #0]
 8012ac8:	b92b      	cbnz	r3, 8012ad6 <__sfp+0x36>
 8012aca:	4638      	mov	r0, r7
 8012acc:	2104      	movs	r1, #4
 8012ace:	f7ff ffa1 	bl	8012a14 <__sfmoreglue>
 8012ad2:	6030      	str	r0, [r6, #0]
 8012ad4:	b108      	cbz	r0, 8012ada <__sfp+0x3a>
 8012ad6:	6836      	ldr	r6, [r6, #0]
 8012ad8:	e7ec      	b.n	8012ab4 <__sfp+0x14>
 8012ada:	230c      	movs	r3, #12
 8012adc:	603b      	str	r3, [r7, #0]
 8012ade:	bdf8      	pop	{r3, r4, r5, r6, r7, pc}
 8012ae0:	f64f 73ff 	movw	r3, #65535	; 0xffff
 8012ae4:	81e3      	strh	r3, [r4, #14]
 8012ae6:	2301      	movs	r3, #1
 8012ae8:	81a3      	strh	r3, [r4, #12]
 8012aea:	6665      	str	r5, [r4, #100]	; 0x64
 8012aec:	6025      	str	r5, [r4, #0]
 8012aee:	60a5      	str	r5, [r4, #8]
 8012af0:	6065      	str	r5, [r4, #4]
 8012af2:	6125      	str	r5, [r4, #16]
 8012af4:	6165      	str	r5, [r4, #20]
 8012af6:	61a5      	str	r5, [r4, #24]
 8012af8:	f104 005c 	add.w	r0, r4, #92	; 0x5c
 8012afc:	4629      	mov	r1, r5
 8012afe:	2208      	movs	r2, #8
 8012b00:	f7ff fb03 	bl	801210a <memset>
 8012b04:	6365      	str	r5, [r4, #52]	; 0x34
 8012b06:	63a5      	str	r5, [r4, #56]	; 0x38
 8012b08:	64a5      	str	r5, [r4, #72]	; 0x48
 8012b0a:	64e5      	str	r5, [r4, #76]	; 0x4c
 8012b0c:	4620      	mov	r0, r4
 8012b0e:	bdf8      	pop	{r3, r4, r5, r6, r7, pc}
 8012b10:	08013cfc 	stmdaeq	r1, {r2, r3, r4, r5, r6, r7, sl, fp, ip, sp}

08012b14 <__smakebuf_r>:
 8012b14:	b5f0      	push	{r4, r5, r6, r7, lr}
 8012b16:	898b      	ldrh	r3, [r1, #12]
 8012b18:	079e      	lsls	r6, r3, #30
 8012b1a:	b091      	sub	sp, #68	; 0x44
 8012b1c:	4605      	mov	r5, r0
 8012b1e:	460c      	mov	r4, r1
 8012b20:	d426      	bmi.n	8012b70 <__smakebuf_r+0x5c>
 8012b22:	f9b1 100e 	ldrsh.w	r1, [r1, #14]
 8012b26:	2900      	cmp	r1, #0
 8012b28:	da09      	bge.n	8012b3e <__smakebuf_r+0x2a>
 8012b2a:	89a3      	ldrh	r3, [r4, #12]
 8012b2c:	f013 0f80 	tst.w	r3, #128	; 0x80
 8012b30:	f04f 0700 	mov.w	r7, #0
 8012b34:	bf14      	ite	ne
 8012b36:	2640      	movne	r6, #64	; 0x40
 8012b38:	f44f 6680 	moveq.w	r6, #1024	; 0x400
 8012b3c:	e00d      	b.n	8012b5a <__smakebuf_r+0x46>
 8012b3e:	aa01      	add	r2, sp, #4
 8012b40:	f000 f990 	bl	8012e64 <_fstat_r>
 8012b44:	2800      	cmp	r0, #0
 8012b46:	dbf0      	blt.n	8012b2a <__smakebuf_r+0x16>
 8012b48:	9f02      	ldr	r7, [sp, #8]
 8012b4a:	f407 4770 	and.w	r7, r7, #61440	; 0xf000
 8012b4e:	f5b7 5100 	subs.w	r1, r7, #8192	; 0x2000
 8012b52:	424f      	negs	r7, r1
 8012b54:	414f      	adcs	r7, r1
 8012b56:	f44f 6680 	mov.w	r6, #1024	; 0x400
 8012b5a:	4628      	mov	r0, r5
 8012b5c:	4631      	mov	r1, r6
 8012b5e:	f000 f87b 	bl	8012c58 <_malloc_r>
 8012b62:	b960      	cbnz	r0, 8012b7e <__smakebuf_r+0x6a>
 8012b64:	89a3      	ldrh	r3, [r4, #12]
 8012b66:	059a      	lsls	r2, r3, #22
 8012b68:	d41d      	bmi.n	8012ba6 <__smakebuf_r+0x92>
 8012b6a:	f043 0302 	orr.w	r3, r3, #2
 8012b6e:	81a3      	strh	r3, [r4, #12]
 8012b70:	f104 0347 	add.w	r3, r4, #71	; 0x47
 8012b74:	6023      	str	r3, [r4, #0]
 8012b76:	6123      	str	r3, [r4, #16]
 8012b78:	2301      	movs	r3, #1
 8012b7a:	6163      	str	r3, [r4, #20]
 8012b7c:	e013      	b.n	8012ba6 <__smakebuf_r+0x92>
 8012b7e:	4b0b      	ldr	r3, [pc, #44]	; (8012bac <__smakebuf_r+0x98>)
 8012b80:	62ab      	str	r3, [r5, #40]	; 0x28
 8012b82:	89a3      	ldrh	r3, [r4, #12]
 8012b84:	6020      	str	r0, [r4, #0]
 8012b86:	f043 0380 	orr.w	r3, r3, #128	; 0x80
 8012b8a:	81a3      	strh	r3, [r4, #12]
 8012b8c:	6120      	str	r0, [r4, #16]
 8012b8e:	6166      	str	r6, [r4, #20]
 8012b90:	b14f      	cbz	r7, 8012ba6 <__smakebuf_r+0x92>
 8012b92:	4628      	mov	r0, r5
 8012b94:	f9b4 100e 	ldrsh.w	r1, [r4, #14]
 8012b98:	f000 f976 	bl	8012e88 <_isatty_r>
 8012b9c:	b118      	cbz	r0, 8012ba6 <__smakebuf_r+0x92>
 8012b9e:	89a3      	ldrh	r3, [r4, #12]
 8012ba0:	f043 0301 	orr.w	r3, r3, #1
 8012ba4:	81a3      	strh	r3, [r4, #12]
 8012ba6:	b011      	add	sp, #68	; 0x44
 8012ba8:	bdf0      	pop	{r4, r5, r6, r7, pc}
 8012baa:	bf00      	nop
 8012bac:	08012999 	stmdaeq	r1, {r0, r3, r4, r7, r8, fp, sp}

08012bb0 <memchr>:
 8012bb0:	b510      	push	{r4, lr}
 8012bb2:	b2c9      	uxtb	r1, r1
 8012bb4:	4402      	add	r2, r0
 8012bb6:	4290      	cmp	r0, r2
 8012bb8:	4603      	mov	r3, r0
 8012bba:	d006      	beq.n	8012bca <memchr+0x1a>
 8012bbc:	781c      	ldrb	r4, [r3, #0]
 8012bbe:	428c      	cmp	r4, r1
 8012bc0:	f100 0001 	add.w	r0, r0, #1
 8012bc4:	d1f7      	bne.n	8012bb6 <memchr+0x6>
 8012bc6:	4618      	mov	r0, r3
 8012bc8:	bd10      	pop	{r4, pc}
 8012bca:	2000      	movs	r0, #0
 8012bcc:	bd10      	pop	{r4, pc}
	...

08012bd0 <_free_r>:
 8012bd0:	b530      	push	{r4, r5, lr}
 8012bd2:	2900      	cmp	r1, #0
 8012bd4:	d03c      	beq.n	8012c50 <_free_r+0x80>
 8012bd6:	f851 2c04 	ldr.w	r2, [r1, #-4]
 8012bda:	1f0b      	subs	r3, r1, #4
 8012bdc:	491d      	ldr	r1, [pc, #116]	; (8012c54 <_free_r+0x84>)
 8012bde:	2a00      	cmp	r2, #0
 8012be0:	bfb8      	it	lt
 8012be2:	189b      	addlt	r3, r3, r2
 8012be4:	680a      	ldr	r2, [r1, #0]
 8012be6:	460c      	mov	r4, r1
 8012be8:	b912      	cbnz	r2, 8012bf0 <_free_r+0x20>
 8012bea:	605a      	str	r2, [r3, #4]
 8012bec:	600b      	str	r3, [r1, #0]
 8012bee:	bd30      	pop	{r4, r5, pc}
 8012bf0:	4293      	cmp	r3, r2
 8012bf2:	d20d      	bcs.n	8012c10 <_free_r+0x40>
 8012bf4:	6819      	ldr	r1, [r3, #0]
 8012bf6:	1858      	adds	r0, r3, r1
 8012bf8:	4290      	cmp	r0, r2
 8012bfa:	d103      	bne.n	8012c04 <_free_r+0x34>
 8012bfc:	585a      	ldr	r2, [r3, r1]
 8012bfe:	4411      	add	r1, r2
 8012c00:	6842      	ldr	r2, [r0, #4]
 8012c02:	6019      	str	r1, [r3, #0]
 8012c04:	605a      	str	r2, [r3, #4]
 8012c06:	6023      	str	r3, [r4, #0]
 8012c08:	bd30      	pop	{r4, r5, pc}
 8012c0a:	4299      	cmp	r1, r3
 8012c0c:	d803      	bhi.n	8012c16 <_free_r+0x46>
 8012c0e:	460a      	mov	r2, r1
 8012c10:	6851      	ldr	r1, [r2, #4]
 8012c12:	2900      	cmp	r1, #0
 8012c14:	d1f9      	bne.n	8012c0a <_free_r+0x3a>
 8012c16:	6814      	ldr	r4, [r2, #0]
 8012c18:	1915      	adds	r5, r2, r4
 8012c1a:	429d      	cmp	r5, r3
 8012c1c:	d10a      	bne.n	8012c34 <_free_r+0x64>
 8012c1e:	681b      	ldr	r3, [r3, #0]
 8012c20:	4423      	add	r3, r4
 8012c22:	18d0      	adds	r0, r2, r3
 8012c24:	4288      	cmp	r0, r1
 8012c26:	6013      	str	r3, [r2, #0]
 8012c28:	d112      	bne.n	8012c50 <_free_r+0x80>
 8012c2a:	6808      	ldr	r0, [r1, #0]
 8012c2c:	4403      	add	r3, r0
 8012c2e:	6013      	str	r3, [r2, #0]
 8012c30:	684b      	ldr	r3, [r1, #4]
 8012c32:	e00c      	b.n	8012c4e <_free_r+0x7e>
 8012c34:	d902      	bls.n	8012c3c <_free_r+0x6c>
 8012c36:	230c      	movs	r3, #12
 8012c38:	6003      	str	r3, [r0, #0]
 8012c3a:	bd30      	pop	{r4, r5, pc}
 8012c3c:	6818      	ldr	r0, [r3, #0]
 8012c3e:	181c      	adds	r4, r3, r0
 8012c40:	428c      	cmp	r4, r1
 8012c42:	d103      	bne.n	8012c4c <_free_r+0x7c>
 8012c44:	680c      	ldr	r4, [r1, #0]
 8012c46:	6849      	ldr	r1, [r1, #4]
 8012c48:	4420      	add	r0, r4
 8012c4a:	6018      	str	r0, [r3, #0]
 8012c4c:	6059      	str	r1, [r3, #4]
 8012c4e:	6053      	str	r3, [r2, #4]
 8012c50:	bd30      	pop	{r4, r5, pc}
 8012c52:	bf00      	nop
 8012c54:	10001e28 	andne	r1, r0, r8, lsr #28

08012c58 <_malloc_r>:
 8012c58:	b570      	push	{r4, r5, r6, lr}
 8012c5a:	1ccd      	adds	r5, r1, #3
 8012c5c:	f025 0503 	bic.w	r5, r5, #3
 8012c60:	3508      	adds	r5, #8
 8012c62:	2d0c      	cmp	r5, #12
 8012c64:	bf38      	it	cc
 8012c66:	250c      	movcc	r5, #12
 8012c68:	2d00      	cmp	r5, #0
 8012c6a:	4606      	mov	r6, r0
 8012c6c:	db3f      	blt.n	8012cee <_malloc_r+0x96>
 8012c6e:	428d      	cmp	r5, r1
 8012c70:	d33d      	bcc.n	8012cee <_malloc_r+0x96>
 8012c72:	4b21      	ldr	r3, [pc, #132]	; (8012cf8 <_malloc_r+0xa0>)
 8012c74:	681c      	ldr	r4, [r3, #0]
 8012c76:	4618      	mov	r0, r3
 8012c78:	4621      	mov	r1, r4
 8012c7a:	b1a1      	cbz	r1, 8012ca6 <_malloc_r+0x4e>
 8012c7c:	680b      	ldr	r3, [r1, #0]
 8012c7e:	1b5b      	subs	r3, r3, r5
 8012c80:	d40e      	bmi.n	8012ca0 <_malloc_r+0x48>
 8012c82:	2b0b      	cmp	r3, #11
 8012c84:	d903      	bls.n	8012c8e <_malloc_r+0x36>
 8012c86:	600b      	str	r3, [r1, #0]
 8012c88:	18cc      	adds	r4, r1, r3
 8012c8a:	50cd      	str	r5, [r1, r3]
 8012c8c:	e01f      	b.n	8012cce <_malloc_r+0x76>
 8012c8e:	428c      	cmp	r4, r1
 8012c90:	d102      	bne.n	8012c98 <_malloc_r+0x40>
 8012c92:	6862      	ldr	r2, [r4, #4]
 8012c94:	6002      	str	r2, [r0, #0]
 8012c96:	e01a      	b.n	8012cce <_malloc_r+0x76>
 8012c98:	684b      	ldr	r3, [r1, #4]
 8012c9a:	6063      	str	r3, [r4, #4]
 8012c9c:	460c      	mov	r4, r1
 8012c9e:	e016      	b.n	8012cce <_malloc_r+0x76>
 8012ca0:	460c      	mov	r4, r1
 8012ca2:	6849      	ldr	r1, [r1, #4]
 8012ca4:	e7e9      	b.n	8012c7a <_malloc_r+0x22>
 8012ca6:	4c15      	ldr	r4, [pc, #84]	; (8012cfc <_malloc_r+0xa4>)
 8012ca8:	6823      	ldr	r3, [r4, #0]
 8012caa:	b91b      	cbnz	r3, 8012cb4 <_malloc_r+0x5c>
 8012cac:	4630      	mov	r0, r6
 8012cae:	f7ff f929 	bl	8011f04 <_sbrk_r>
 8012cb2:	6020      	str	r0, [r4, #0]
 8012cb4:	4629      	mov	r1, r5
 8012cb6:	4630      	mov	r0, r6
 8012cb8:	f7ff f924 	bl	8011f04 <_sbrk_r>
 8012cbc:	1c43      	adds	r3, r0, #1
 8012cbe:	4601      	mov	r1, r0
 8012cc0:	d015      	beq.n	8012cee <_malloc_r+0x96>
 8012cc2:	1cc4      	adds	r4, r0, #3
 8012cc4:	f024 0403 	bic.w	r4, r4, #3
 8012cc8:	4284      	cmp	r4, r0
 8012cca:	d10a      	bne.n	8012ce2 <_malloc_r+0x8a>
 8012ccc:	6025      	str	r5, [r4, #0]
 8012cce:	f104 000b 	add.w	r0, r4, #11
 8012cd2:	1d23      	adds	r3, r4, #4
 8012cd4:	f020 0007 	bic.w	r0, r0, #7
 8012cd8:	1ac3      	subs	r3, r0, r3
 8012cda:	d00b      	beq.n	8012cf4 <_malloc_r+0x9c>
 8012cdc:	425a      	negs	r2, r3
 8012cde:	50e2      	str	r2, [r4, r3]
 8012ce0:	bd70      	pop	{r4, r5, r6, pc}
 8012ce2:	4630      	mov	r0, r6
 8012ce4:	1a61      	subs	r1, r4, r1
 8012ce6:	f7ff f90d 	bl	8011f04 <_sbrk_r>
 8012cea:	3001      	adds	r0, #1
 8012cec:	d1ee      	bne.n	8012ccc <_malloc_r+0x74>
 8012cee:	230c      	movs	r3, #12
 8012cf0:	6033      	str	r3, [r6, #0]
 8012cf2:	2000      	movs	r0, #0
 8012cf4:	bd70      	pop	{r4, r5, r6, pc}
 8012cf6:	bf00      	nop
 8012cf8:	10001e28 	andne	r1, r0, r8, lsr #28
 8012cfc:	10001e24 	andne	r1, r0, r4, lsr #28

08012d00 <_raise_r>:
 8012d00:	291f      	cmp	r1, #31
 8012d02:	b538      	push	{r3, r4, r5, lr}
 8012d04:	4605      	mov	r5, r0
 8012d06:	460c      	mov	r4, r1
 8012d08:	d904      	bls.n	8012d14 <_raise_r+0x14>
 8012d0a:	2316      	movs	r3, #22
 8012d0c:	6003      	str	r3, [r0, #0]
 8012d0e:	f04f 30ff 	mov.w	r0, #4294967295
 8012d12:	bd38      	pop	{r3, r4, r5, pc}
 8012d14:	6c42      	ldr	r2, [r0, #68]	; 0x44
 8012d16:	b112      	cbz	r2, 8012d1e <_raise_r+0x1e>
 8012d18:	f852 3021 	ldr.w	r3, [r2, r1, lsl #2]
 8012d1c:	b94b      	cbnz	r3, 8012d32 <_raise_r+0x32>
 8012d1e:	4628      	mov	r0, r5
 8012d20:	f000 f830 	bl	8012d84 <_getpid_r>
 8012d24:	4622      	mov	r2, r4
 8012d26:	4601      	mov	r1, r0
 8012d28:	4628      	mov	r0, r5
 8012d2a:	e8bd 4038 	ldmia.w	sp!, {r3, r4, r5, lr}
 8012d2e:	f000 b817 	b.w	8012d60 <_kill_r>
 8012d32:	2b01      	cmp	r3, #1
 8012d34:	d00a      	beq.n	8012d4c <_raise_r+0x4c>
 8012d36:	1c59      	adds	r1, r3, #1
 8012d38:	d103      	bne.n	8012d42 <_raise_r+0x42>
 8012d3a:	2316      	movs	r3, #22
 8012d3c:	6003      	str	r3, [r0, #0]
 8012d3e:	2001      	movs	r0, #1
 8012d40:	bd38      	pop	{r3, r4, r5, pc}
 8012d42:	2500      	movs	r5, #0
 8012d44:	f842 5024 	str.w	r5, [r2, r4, lsl #2]
 8012d48:	4620      	mov	r0, r4
 8012d4a:	4798      	blx	r3
 8012d4c:	2000      	movs	r0, #0
 8012d4e:	bd38      	pop	{r3, r4, r5, pc}

08012d50 <raise>:
 8012d50:	4b02      	ldr	r3, [pc, #8]	; (8012d5c <raise+0xc>)
 8012d52:	4601      	mov	r1, r0
 8012d54:	6818      	ldr	r0, [r3, #0]
 8012d56:	f7ff bfd3 	b.w	8012d00 <_raise_r>
 8012d5a:	bf00      	nop
 8012d5c:	100017d0 	ldrdne	r1, [r0], -r0

08012d60 <_kill_r>:
 8012d60:	b538      	push	{r3, r4, r5, lr}
 8012d62:	4c07      	ldr	r4, [pc, #28]	; (8012d80 <_kill_r+0x20>)
 8012d64:	2300      	movs	r3, #0
 8012d66:	4605      	mov	r5, r0
 8012d68:	4608      	mov	r0, r1
 8012d6a:	4611      	mov	r1, r2
 8012d6c:	6023      	str	r3, [r4, #0]
 8012d6e:	f7ff f8c3 	bl	8011ef8 <_kill>
 8012d72:	1c43      	adds	r3, r0, #1
 8012d74:	d102      	bne.n	8012d7c <_kill_r+0x1c>
 8012d76:	6823      	ldr	r3, [r4, #0]
 8012d78:	b103      	cbz	r3, 8012d7c <_kill_r+0x1c>
 8012d7a:	602b      	str	r3, [r5, #0]
 8012d7c:	bd38      	pop	{r3, r4, r5, pc}
 8012d7e:	bf00      	nop
 8012d80:	10001e2c 	andne	r1, r0, ip, lsr #28

08012d84 <_getpid_r>:
 8012d84:	f7ff b8b6 	b.w	8011ef4 <_getpid>

08012d88 <__sread>:
 8012d88:	b510      	push	{r4, lr}
 8012d8a:	460c      	mov	r4, r1
 8012d8c:	f9b1 100e 	ldrsh.w	r1, [r1, #14]
 8012d90:	f000 f89c 	bl	8012ecc <_read_r>
 8012d94:	2800      	cmp	r0, #0
 8012d96:	db03      	blt.n	8012da0 <__sread+0x18>
 8012d98:	6d63      	ldr	r3, [r4, #84]	; 0x54
 8012d9a:	4403      	add	r3, r0
 8012d9c:	6563      	str	r3, [r4, #84]	; 0x54
 8012d9e:	bd10      	pop	{r4, pc}
 8012da0:	89a3      	ldrh	r3, [r4, #12]
 8012da2:	f423 5380 	bic.w	r3, r3, #4096	; 0x1000
 8012da6:	81a3      	strh	r3, [r4, #12]
 8012da8:	bd10      	pop	{r4, pc}

08012daa <__swrite>:
 8012daa:	e92d 41f0 	stmdb	sp!, {r4, r5, r6, r7, r8, lr}
 8012dae:	461d      	mov	r5, r3
 8012db0:	898b      	ldrh	r3, [r1, #12]
 8012db2:	05db      	lsls	r3, r3, #23
 8012db4:	4607      	mov	r7, r0
 8012db6:	460c      	mov	r4, r1
 8012db8:	4616      	mov	r6, r2
 8012dba:	d505      	bpl.n	8012dc8 <__swrite+0x1e>
 8012dbc:	f9b1 100e 	ldrsh.w	r1, [r1, #14]
 8012dc0:	2200      	movs	r2, #0
 8012dc2:	2302      	movs	r3, #2
 8012dc4:	f000 f870 	bl	8012ea8 <_lseek_r>
 8012dc8:	89a3      	ldrh	r3, [r4, #12]
 8012dca:	f9b4 100e 	ldrsh.w	r1, [r4, #14]
 8012dce:	f423 5380 	bic.w	r3, r3, #4096	; 0x1000
 8012dd2:	81a3      	strh	r3, [r4, #12]
 8012dd4:	4638      	mov	r0, r7
 8012dd6:	4632      	mov	r2, r6
 8012dd8:	462b      	mov	r3, r5
 8012dda:	e8bd 41f0 	ldmia.w	sp!, {r4, r5, r6, r7, r8, lr}
 8012dde:	f000 b81f 	b.w	8012e20 <_write_r>

08012de2 <__sseek>:
 8012de2:	b510      	push	{r4, lr}
 8012de4:	460c      	mov	r4, r1
 8012de6:	f9b1 100e 	ldrsh.w	r1, [r1, #14]
 8012dea:	f000 f85d 	bl	8012ea8 <_lseek_r>
 8012dee:	1c43      	adds	r3, r0, #1
 8012df0:	89a3      	ldrh	r3, [r4, #12]
 8012df2:	d103      	bne.n	8012dfc <__sseek+0x1a>
 8012df4:	f423 5380 	bic.w	r3, r3, #4096	; 0x1000
 8012df8:	81a3      	strh	r3, [r4, #12]
 8012dfa:	bd10      	pop	{r4, pc}
 8012dfc:	f443 5380 	orr.w	r3, r3, #4096	; 0x1000
 8012e00:	81a3      	strh	r3, [r4, #12]
 8012e02:	6560      	str	r0, [r4, #84]	; 0x54
 8012e04:	bd10      	pop	{r4, pc}

08012e06 <__sclose>:
 8012e06:	f9b1 100e 	ldrsh.w	r1, [r1, #14]
 8012e0a:	f000 b81b 	b.w	8012e44 <_close_r>

08012e0e <strlen>:
 8012e0e:	4603      	mov	r3, r0
 8012e10:	f813 2b01 	ldrb.w	r2, [r3], #1
 8012e14:	2a00      	cmp	r2, #0
 8012e16:	d1fb      	bne.n	8012e10 <strlen+0x2>
 8012e18:	1a18      	subs	r0, r3, r0
 8012e1a:	3801      	subs	r0, #1
 8012e1c:	4770      	bx	lr
	...

08012e20 <_write_r>:
 8012e20:	b538      	push	{r3, r4, r5, lr}
 8012e22:	4c07      	ldr	r4, [pc, #28]	; (8012e40 <_write_r+0x20>)
 8012e24:	4605      	mov	r5, r0
 8012e26:	2000      	movs	r0, #0
 8012e28:	6020      	str	r0, [r4, #0]
 8012e2a:	4608      	mov	r0, r1
 8012e2c:	4611      	mov	r1, r2
 8012e2e:	461a      	mov	r2, r3
 8012e30:	f7ff f87c 	bl	8011f2c <_write>
 8012e34:	1c43      	adds	r3, r0, #1
 8012e36:	d102      	bne.n	8012e3e <_write_r+0x1e>
 8012e38:	6823      	ldr	r3, [r4, #0]
 8012e3a:	b103      	cbz	r3, 8012e3e <_write_r+0x1e>
 8012e3c:	602b      	str	r3, [r5, #0]
 8012e3e:	bd38      	pop	{r3, r4, r5, pc}
 8012e40:	10001e2c 	andne	r1, r0, ip, lsr #28

08012e44 <_close_r>:
 8012e44:	b538      	push	{r3, r4, r5, lr}
 8012e46:	4c06      	ldr	r4, [pc, #24]	; (8012e60 <_close_r+0x1c>)
 8012e48:	2300      	movs	r3, #0
 8012e4a:	4605      	mov	r5, r0
 8012e4c:	4608      	mov	r0, r1
 8012e4e:	6023      	str	r3, [r4, #0]
 8012e50:	f7ff f846 	bl	8011ee0 <_close>
 8012e54:	1c43      	adds	r3, r0, #1
 8012e56:	d102      	bne.n	8012e5e <_close_r+0x1a>
 8012e58:	6823      	ldr	r3, [r4, #0]
 8012e5a:	b103      	cbz	r3, 8012e5e <_close_r+0x1a>
 8012e5c:	602b      	str	r3, [r5, #0]
 8012e5e:	bd38      	pop	{r3, r4, r5, pc}
 8012e60:	10001e2c 	andne	r1, r0, ip, lsr #28

08012e64 <_fstat_r>:
 8012e64:	b538      	push	{r3, r4, r5, lr}
 8012e66:	4c07      	ldr	r4, [pc, #28]	; (8012e84 <_fstat_r+0x20>)
 8012e68:	2300      	movs	r3, #0
 8012e6a:	4605      	mov	r5, r0
 8012e6c:	4608      	mov	r0, r1
 8012e6e:	4611      	mov	r1, r2
 8012e70:	6023      	str	r3, [r4, #0]
 8012e72:	f7ff f837 	bl	8011ee4 <_fstat>
 8012e76:	1c43      	adds	r3, r0, #1
 8012e78:	d102      	bne.n	8012e80 <_fstat_r+0x1c>
 8012e7a:	6823      	ldr	r3, [r4, #0]
 8012e7c:	b103      	cbz	r3, 8012e80 <_fstat_r+0x1c>
 8012e7e:	602b      	str	r3, [r5, #0]
 8012e80:	bd38      	pop	{r3, r4, r5, pc}
 8012e82:	bf00      	nop
 8012e84:	10001e2c 	andne	r1, r0, ip, lsr #28

08012e88 <_isatty_r>:
 8012e88:	b538      	push	{r3, r4, r5, lr}
 8012e8a:	4c06      	ldr	r4, [pc, #24]	; (8012ea4 <_isatty_r+0x1c>)
 8012e8c:	2300      	movs	r3, #0
 8012e8e:	4605      	mov	r5, r0
 8012e90:	4608      	mov	r0, r1
 8012e92:	6023      	str	r3, [r4, #0]
 8012e94:	f7ff f828 	bl	8011ee8 <_isatty>
 8012e98:	1c43      	adds	r3, r0, #1
 8012e9a:	d102      	bne.n	8012ea2 <_isatty_r+0x1a>
 8012e9c:	6823      	ldr	r3, [r4, #0]
 8012e9e:	b103      	cbz	r3, 8012ea2 <_isatty_r+0x1a>
 8012ea0:	602b      	str	r3, [r5, #0]
 8012ea2:	bd38      	pop	{r3, r4, r5, pc}
 8012ea4:	10001e2c 	andne	r1, r0, ip, lsr #28

08012ea8 <_lseek_r>:
 8012ea8:	b538      	push	{r3, r4, r5, lr}
 8012eaa:	4c07      	ldr	r4, [pc, #28]	; (8012ec8 <_lseek_r+0x20>)
 8012eac:	4605      	mov	r5, r0
 8012eae:	2000      	movs	r0, #0
 8012eb0:	6020      	str	r0, [r4, #0]
 8012eb2:	4608      	mov	r0, r1
 8012eb4:	4611      	mov	r1, r2
 8012eb6:	461a      	mov	r2, r3
 8012eb8:	f7ff f818 	bl	8011eec <_lseek>
 8012ebc:	1c43      	adds	r3, r0, #1
 8012ebe:	d102      	bne.n	8012ec6 <_lseek_r+0x1e>
 8012ec0:	6823      	ldr	r3, [r4, #0]
 8012ec2:	b103      	cbz	r3, 8012ec6 <_lseek_r+0x1e>
 8012ec4:	602b      	str	r3, [r5, #0]
 8012ec6:	bd38      	pop	{r3, r4, r5, pc}
 8012ec8:	10001e2c 	andne	r1, r0, ip, lsr #28

08012ecc <_read_r>:
 8012ecc:	b538      	push	{r3, r4, r5, lr}
 8012ece:	4c07      	ldr	r4, [pc, #28]	; (8012eec <_read_r+0x20>)
 8012ed0:	4605      	mov	r5, r0
 8012ed2:	2000      	movs	r0, #0
 8012ed4:	6020      	str	r0, [r4, #0]
 8012ed6:	4608      	mov	r0, r1
 8012ed8:	4611      	mov	r1, r2
 8012eda:	461a      	mov	r2, r3
 8012edc:	f7ff f808 	bl	8011ef0 <_read>
 8012ee0:	1c43      	adds	r3, r0, #1
 8012ee2:	d102      	bne.n	8012eea <_read_r+0x1e>
 8012ee4:	6823      	ldr	r3, [r4, #0]
 8012ee6:	b103      	cbz	r3, 8012eea <_read_r+0x1e>
 8012ee8:	602b      	str	r3, [r5, #0]
 8012eea:	bd38      	pop	{r3, r4, r5, pc}
 8012eec:	10001e2c 	andne	r1, r0, ip, lsr #28

08012ef0 <__SaveAndSetIRQMask_veneer>:
 8012ef0:	b401      	push	{r0}
 8012ef2:	4802      	ldr	r0, [pc, #8]	; (8012efc <__SaveAndSetIRQMask_veneer+0xc>)
 8012ef4:	4684      	mov	ip, r0
 8012ef6:	bc01      	pop	{r0}
 8012ef8:	4760      	bx	ip
 8012efa:	bf00      	nop
 8012efc:	000004b3 			; <UNDEFINED> instruction: 0x000004b3

08012f00 <__Flash_ReturnReady_veneer>:
 8012f00:	b401      	push	{r0}
 8012f02:	4802      	ldr	r0, [pc, #8]	; (8012f0c <__Flash_ReturnReady_veneer+0xc>)
 8012f04:	4684      	mov	ip, r0
 8012f06:	bc01      	pop	{r0}
 8012f08:	4760      	bx	ip
 8012f0a:	bf00      	nop
 8012f0c:	00000651 	andeq	r0, r0, r1, asr r6

08012f10 <__is_clk_use_lfosc_veneer>:
 8012f10:	b401      	push	{r0}
 8012f12:	4802      	ldr	r0, [pc, #8]	; (8012f1c <__is_clk_use_lfosc_veneer+0xc>)
 8012f14:	4684      	mov	ip, r0
 8012f16:	bc01      	pop	{r0}
 8012f18:	4760      	bx	ip
 8012f1a:	bf00      	nop
 8012f1c:	04008b69 	streq	r8, [r0], #-2921	; 0xb69

08012f20 <__hal_clock_init_veneer>:
 8012f20:	b401      	push	{r0}
 8012f22:	4802      	ldr	r0, [pc, #8]	; (8012f2c <__hal_clock_init_veneer+0xc>)
 8012f24:	4684      	mov	ip, r0
 8012f26:	bc01      	pop	{r0}
 8012f28:	4760      	bx	ip
 8012f2a:	bf00      	nop
 8012f2c:	0400a2f9 	streq	sl, [r0], #-761	; 0x2f9

08012f30 <__save_and_set_interrupt_mask_veneer>:
 8012f30:	b401      	push	{r0}
 8012f32:	4802      	ldr	r0, [pc, #8]	; (8012f3c <__save_and_set_interrupt_mask_veneer+0xc>)
 8012f34:	4684      	mov	ip, r0
 8012f36:	bc01      	pop	{r0}
 8012f38:	4760      	bx	ip
 8012f3a:	bf00      	nop
 8012f3c:	040083ad 	streq	r8, [r0], #-941	; 0x3ad

08012f40 <__restore_interrupt_mask_veneer>:
 8012f40:	b401      	push	{r0}
 8012f42:	4802      	ldr	r0, [pc, #8]	; (8012f4c <__restore_interrupt_mask_veneer+0xc>)
 8012f44:	4684      	mov	ip, r0
 8012f46:	bc01      	pop	{r0}
 8012f48:	4760      	bx	ip
 8012f4a:	bf00      	nop
 8012f4c:	040083c1 	streq	r8, [r0], #-961	; 0x3c1

08012f50 <__NOR_ReadID_veneer>:
 8012f50:	b401      	push	{r0}
 8012f52:	4802      	ldr	r0, [pc, #8]	; (8012f5c <__NOR_ReadID_veneer+0xc>)
 8012f54:	4684      	mov	ip, r0
 8012f56:	bc01      	pop	{r0}
 8012f58:	4760      	bx	ip
 8012f5a:	bf00      	nop
 8012f5c:	0000115d 	andeq	r1, r0, sp, asr r1

08012f60 <__hal_clock_enable_veneer>:
 8012f60:	b401      	push	{r0}
 8012f62:	4802      	ldr	r0, [pc, #8]	; (8012f6c <__hal_clock_enable_veneer+0xc>)
 8012f64:	4684      	mov	ip, r0
 8012f66:	bc01      	pop	{r0}
 8012f68:	4760      	bx	ip
 8012f6a:	bf00      	nop
 8012f6c:	04009619 	streq	r9, [r0], #-1561	; 0x619

08012f70 <__RestoreIRQMask_veneer>:
 8012f70:	b401      	push	{r0}
 8012f72:	4802      	ldr	r0, [pc, #8]	; (8012f7c <__RestoreIRQMask_veneer+0xc>)
 8012f74:	4684      	mov	ip, r0
 8012f76:	bc01      	pop	{r0}
 8012f78:	4760      	bx	ip
 8012f7a:	bf00      	nop
 8012f7c:	000004b7 			; <UNDEFINED> instruction: 0x000004b7

08012f80 <__SF_DAL_Dev_ReadID_veneer>:
 8012f80:	b401      	push	{r0}
 8012f82:	4802      	ldr	r0, [pc, #8]	; (8012f8c <__SF_DAL_Dev_ReadID_veneer+0xc>)
 8012f84:	4684      	mov	ip, r0
 8012f86:	bc01      	pop	{r0}
 8012f88:	4760      	bx	ip
 8012f8a:	bf00      	nop
 8012f8c:	0000108b 	andeq	r1, r0, fp, lsl #1
	...
 8012f98:	00000020 	andeq	r0, r0, r0, lsr #32
 8012f9c:	00000090 	muleq	r0, r0, r0
 8012fa0:	000000a8 	andeq	r0, r0, r8, lsr #1
 8012fa4:	00000054 	andeq	r0, r0, r4, asr r0
 8012fa8:	0000006c 	andeq	r0, r0, ip, rrx
 8012fac:	000000ba 	strheq	r0, [r0], -sl
 8012fb0:	000000f6 	strdeq	r0, [r0], -r6
 8012fb4:	000000fe 	strdeq	r0, [r0], -lr
	...
 8012fcc:	00000001 	andeq	r0, r0, r1
 8012fd0:	00000001 	andeq	r0, r0, r1
 8012fd4:	00000001 	andeq	r0, r0, r1
 8012fd8:	00000001 	andeq	r0, r0, r1
 8012fdc:	00000001 	andeq	r0, r0, r1
 8012fe0:	00005aa5 	andeq	r5, r0, r5, lsr #21
 8012fe4:	0000ffff 	strdeq	pc, [r0], -pc	; <UNPREDICTABLE>

08012fe8 <__func__.6966>:
 8012fe8:	616d6476 	smcvs	54854	; 0xd646
 8012fec:	696e695f 	stmdbvs	lr!, {r0, r1, r2, r3, r4, r6, r8, fp, sp, lr}^
 8012ff0:	64700074 	ldrbtvs	r0, [r0], #-116	; 0x74

08012ff2 <__func__.7060>:
 8012ff2:	645f6470 	ldrbvs	r6, [pc], #-1136	; 8012ffa <__func__.7060+0x8>
 8012ff6:	69616d6f 	stmdbvs	r1!, {r0, r1, r2, r3, r5, r6, r8, sl, fp, sp, lr}^
 8012ffa:	6d645f6e 	stclvs	15, cr5, [r4, #-440]!	; 0xfffffe48
 8012ffe:	6e695f61 	cdpvs	15, 6, cr5, cr9, cr1, {3}
 8013002:	72726574 	rsbsvc	r6, r2, #116, 10	; 0x1d000000
 8013006:	5f747075 	svcpl	0x00747075
 801300a:	646e6168 	strbtvs	r6, [lr], #-360	; 0x168
 801300e:	76007265 	strvc	r7, [r0], -r5, ror #4

08013011 <__func__.6994>:
 8013011:	616d6476 	smcvs	54854	; 0xd646
 8013015:	6e6f635f 	mcrvs	3, 3, r6, cr15, cr15, {2}
 8013019:	75676966 	strbvc	r6, [r7, #-2406]!	; 0x966
 801301d:	61006572 	tstvs	r0, r2, ror r5

08013020 <__func__.7074>:
 8013020:	645f6f61 	ldrbvs	r6, [pc], #-3937	; 8013028 <__func__.7074+0x8>
 8013024:	69616d6f 	stmdbvs	r1!, {r0, r1, r2, r3, r5, r6, r8, sl, fp, sp, lr}^
 8013028:	6d645f6e 	stclvs	15, cr5, [r4, #-440]!	; 0xfffffe48
 801302c:	6e695f61 	cdpvs	15, 6, cr5, cr9, cr1, {3}
 8013030:	72726574 	rsbsvc	r6, r2, #116, 10	; 0x1d000000
 8013034:	5f747075 	svcpl	0x00747075
 8013038:	646e6168 	strbtvs	r6, [lr], #-360	; 0x168
 801303c:	2e007265 	cdpcs	2, 0, cr7, cr0, cr5, {3}
 8013040:	2e2e2f2e 	cdpcs	15, 2, cr2, cr14, cr14, {1}
 8013044:	2f2e2e2f 	svccs	0x002e2e2f
 8013048:	2e2f2e2e 	cdpcs	14, 2, cr2, cr15, cr14, {1}
 801304c:	72642f2e 	rsbvc	r2, r4, #46, 30	; 0xb8
 8013050:	72657669 	rsbvc	r7, r5, #110100480	; 0x6900000
 8013054:	6968632f 	stmdbvs	r8!, {r0, r1, r2, r3, r5, r8, r9, sp, lr}^
 8013058:	746d2f70 	strbtvc	r2, [sp], #-3952	; 0xf70
 801305c:	33323532 	teqcc	r2, #209715200	; 0xc800000
 8013060:	6372732f 	cmnvs	r2, #-1140850688	; 0xbc000000
 8013064:	6c61682f 	stclvs	8, cr6, [r1], #-188	; 0xffffff44
 8013068:	6d64705f 	stclvs	0, cr7, [r4, #-380]!	; 0xfffffe84
 801306c:	6e695f61 	cdpvs	15, 6, cr5, cr9, cr1, {3}
 8013070:	6e726574 	mrcvs	5, 3, r6, cr2, cr4, {3}
 8013074:	632e6c61 	teqvs	lr, #24832	; 0x6100
 8013078:	54003000 	strpl	r3, [r0], #-0
 801307c:	20736968 	rsbscs	r6, r3, r8, ror #18
 8013080:	69726570 	ldmdbvs	r2!, {r4, r5, r6, r8, sl, sp, lr}^
 8013084:	72656870 	rsbvc	r6, r5, #112, 16	; 0x700000
 8013088:	64206c61 	strtvs	r6, [r0], #-3169	; 0xc61
 801308c:	6320616d 	teqvs	r0, #1073741851	; 0x4000001b
 8013090:	6e6e6168 	powvsez	f6, f6, #0.0
 8013094:	25206c65 	strcs	r6, [r0, #-3173]!	; 0xc65
 8013098:	61682064 	cmnvs	r8, r4, rrx
 801309c:	65622073 	strbvs	r2, [r2, #-115]!	; 0x73
 80130a0:	69206e65 	stmdbvs	r0!, {r0, r2, r5, r6, r9, sl, fp, sp, lr}
 80130a4:	6974696e 	ldmdbvs	r4!, {r1, r2, r3, r5, r6, r8, fp, sp, lr}^
 80130a8:	7a696c61 	bvc	9a6e234 <Image$$EPO$$ZI$$Base+0x167e234>
 80130ac:	54006465 	strpl	r6, [r0], #-1125	; 0x465
 80130b0:	20736968 	rsbscs	r6, r3, r8, ror #18
 80130b4:	69726570 	ldmdbvs	r2!, {r4, r5, r6, r8, sl, sp, lr}^
 80130b8:	72656870 	rsbvc	r6, r5, #112, 16	; 0x700000
 80130bc:	64206c61 	strtvs	r6, [r0], #-3169	; 0xc61
 80130c0:	6320616d 	teqvs	r0, #1073741851	; 0x4000001b
 80130c4:	6e6e6168 	powvsez	f6, f6, #0.0
 80130c8:	25206c65 	strcs	r6, [r0, #-3173]!	; 0xc65
 80130cc:	61682064 	cmnvs	r8, r4, rrx
 80130d0:	65622073 	strbvs	r2, [r2, #-115]!	; 0x73
 80130d4:	64206e65 	strtvs	r6, [r0], #-3685	; 0xe65
 80130d8:	696e6965 	stmdbvs	lr!, {r0, r2, r5, r6, r8, fp, sp, lr}^
 80130dc:	6c616974 	stclvs	9, cr6, [r1], #-464	; 0xfffffe30
 80130e0:	64657a69 	strbtvs	r7, [r5], #-2665	; 0xa69
 80130e4:	69685400 	stmdbvs	r8!, {sl, ip, lr}^
 80130e8:	66762073 			; <UNDEFINED> instruction: 0x66762073
 80130ec:	206f6669 	rsbcs	r6, pc, r9, ror #12
 80130f0:	20616d64 	rsbcs	r6, r1, r4, ror #26
 80130f4:	6e616863 	cdpvs	8, 6, cr6, cr1, cr3, {3}
 80130f8:	206c656e 	rsbcs	r6, ip, lr, ror #10
 80130fc:	68206425 	stmdavs	r0!, {r0, r2, r5, sl, sp, lr}
 8013100:	62207361 	eorvs	r7, r0, #-2080374783	; 0x84000001
 8013104:	206e6565 	rsbcs	r6, lr, r5, ror #10
 8013108:	74696e69 	strbtvc	r6, [r9], #-3689	; 0xe69
 801310c:	696c6169 	stmdbvs	ip!, {r0, r3, r5, r6, r8, sp, lr}^
 8013110:	0064657a 	rsbeq	r6, r4, sl, ror r5
 8013114:	73696854 	cmnvc	r9, #84, 16	; 0x540000
 8013118:	69667620 	stmdbvs	r6!, {r5, r9, sl, ip, sp, lr}^
 801311c:	64206f66 	strtvs	r6, [r0], #-3942	; 0xf66
 8013120:	6320616d 	teqvs	r0, #1073741851	; 0x4000001b
 8013124:	6e6e6168 	powvsez	f6, f6, #0.0
 8013128:	25206c65 	strcs	r6, [r0, #-3173]!	; 0xc65
 801312c:	61682064 	cmnvs	r8, r4, rrx
 8013130:	65622073 	strbvs	r2, [r2, #-115]!	; 0x73
 8013134:	64206e65 	strtvs	r6, [r0], #-3685	; 0xe65
 8013138:	696e6965 	stmdbvs	lr!, {r0, r2, r5, r6, r8, fp, sp, lr}^
 801313c:	6c616974 	stclvs	9, cr6, [r1], #-464	; 0xfffffe30
 8013140:	64657a69 	strbtvs	r7, [r5], #-2665	; 0xa69
	...

08013145 <__FUNCTION__.6965>:
 8013145:	616d6476 	smcvs	54854	; 0xd646
 8013149:	696e695f 	stmdbvs	lr!, {r0, r1, r2, r3, r4, r6, r8, fp, sp, lr}^
 801314d:	61680074 	smcvs	32772	; 0x8004

0801314f <__func__.7095>:
 801314f:	5f6c6168 	svcpl	0x006c6168
 8013153:	74726175 	ldrbtvc	r6, [r2], #-373	; 0x175
 8013157:	6e65735f 	mcrvs	3, 3, r7, cr5, cr15, {2}
 801315b:	6d645f64 	stclvs	15, cr5, [r4, #-400]!	; 0xfffffe70
 801315f:	61680061 	cmnvs	r8, r1, rrx

08013161 <__func__.7165>:
 8013161:	5f6c6168 	svcpl	0x006c6168
 8013165:	74726175 	ldrbtvc	r6, [r2], #-373	; 0x175
 8013169:	7465675f 	strbtvc	r6, [r5], #-1887	; 0x75f
 801316d:	6176615f 	cmnvs	r6, pc, asr r1
 8013171:	62616c69 	rsbvs	r6, r1, #26880	; 0x6900
 8013175:	725f656c 	subsvc	r6, pc, #108, 10	; 0x1b000000
 8013179:	69656365 	stmdbvs	r5!, {r0, r2, r5, r6, r8, r9, sp, lr}^
 801317d:	625f6576 	subsvs	r6, pc, #494927872	; 0x1d800000
 8013181:	73657479 	cmnvc	r5, #2030043136	; 0x79000000
	...

08013186 <__func__.7060>:
 8013186:	5f6c6168 	svcpl	0x006c6168
 801318a:	74726175 	ldrbtvc	r6, [r2], #-373	; 0x175
 801318e:	696e695f 	stmdbvs	lr!, {r0, r1, r2, r3, r4, r6, r8, fp, sp, lr}^
 8013192:	2e2e0074 	mcrcs	0, 1, r0, cr14, cr4, {3}
 8013196:	2f2e2e2f 	svccs	0x002e2e2f
 801319a:	2e2f2e2e 	cdpcs	14, 2, cr2, cr15, cr14, {1}
 801319e:	2e2e2f2e 	cdpcs	15, 2, cr2, cr14, cr14, {1}
 80131a2:	6972642f 	ldmdbvs	r2!, {r0, r1, r2, r3, r5, sl, sp, lr}^
 80131a6:	2f726576 	svccs	0x00726576
 80131aa:	70696863 	rsbvc	r6, r9, r3, ror #16
 80131ae:	32746d2f 	rsbscc	r6, r4, #3008	; 0xbc0
 80131b2:	2f333235 	svccs	0x00333235
 80131b6:	2f637273 	svccs	0x00637273
 80131ba:	5f6c6168 	svcpl	0x006c6168
 80131be:	74726175 	ldrbtvc	r6, [r2], #-373	; 0x175
 80131c2:	7500632e 	strvc	r6, [r0, #-814]	; 0x32e

080131c5 <__func__.7011>:
 80131c5:	74726175 	ldrbtvc	r6, [r2], #-373	; 0x175
 80131c9:	6365725f 	cmnvs	r5, #-268435451	; 0xf0000005
 80131cd:	65766965 	ldrbvs	r6, [r6, #-2405]!	; 0x965
 80131d1:	6e61685f 	mcrvs	8, 3, r6, cr1, cr15, {2}
 80131d5:	72656c64 	rsbvc	r6, r5, #100, 24	; 0x6400
	...

080131da <__func__.7151>:
 80131da:	5f6c6168 	svcpl	0x006c6168
 80131de:	74726175 	ldrbtvc	r6, [r2], #-373	; 0x175
 80131e2:	6765725f 			; <UNDEFINED> instruction: 0x6765725f
 80131e6:	65747369 	ldrbvs	r7, [r4, #-873]!	; 0x369
 80131ea:	61635f72 	smcvs	13810	; 0x35f2
 80131ee:	61626c6c 	cmnvs	r2, ip, ror #24
 80131f2:	68006b63 	stmdavs	r0, {r0, r1, r5, r6, r8, r9, fp, sp, lr}

080131f5 <__func__.7190>:
 80131f5:	5f6c6168 	svcpl	0x006c6168
 80131f9:	74726175 	ldrbtvc	r6, [r2], #-373	; 0x175
 80131fd:	7465735f 	strbtvc	r7, [r5], #-863	; 0x35f
 8013201:	616d645f 	cmnvs	sp, pc, asr r4
	...

08013206 <__func__.7022>:
 8013206:	74726175 	ldrbtvc	r6, [r2], #-373	; 0x175
 801320a:	6e65735f 	mcrvs	3, 3, r7, cr5, cr15, {2}
 801320e:	61685f64 	cmnvs	r8, r4, ror #30
 8013212:	656c646e 	strbvs	r6, [ip, #-1134]!	; 0x46e
 8013216:	61680072 	smcvs	32770	; 0x8002

08013218 <__func__.7129>:
 8013218:	5f6c6168 	svcpl	0x006c6168
 801321c:	74726175 	ldrbtvc	r6, [r2], #-373	; 0x175
 8013220:	6365725f 	cmnvs	r5, #-268435451	; 0xf0000005
 8013224:	65766965 	ldrbvs	r6, [r6, #-2405]!	; 0x965
 8013228:	616d645f 	cmnvs	sp, pc, asr r4
	...

0801322d <__func__.7140>:
 801322d:	74726175 	ldrbtvc	r6, [r2], #-373	; 0x175
 8013231:	6174735f 	cmnvs	r4, pc, asr r3
 8013235:	645f7472 	ldrbvs	r7, [pc], #-1138	; 801323d <__func__.7140+0x10>
 8013239:	745f616d 	ldrbvc	r6, [pc], #-365	; 8013241 <__func__.7140+0x14>
 801323d:	736e6172 	cmnvc	lr, #-2147483620	; 0x8000001c
 8013241:	7373696d 	cmnvc	r3, #1785856	; 0x1b4000
 8013245:	006e6f69 	rsbeq	r6, lr, r9, ror #30

08013249 <__func__.7029>:
 8013249:	74726175 	ldrbtvc	r6, [r2], #-373	; 0x175
 801324d:	7272655f 	rsbsvc	r6, r2, #398458880	; 0x17c00000
 8013251:	685f726f 	ldmdavs	pc, {r0, r1, r2, r3, r5, r6, r9, ip, sp, lr}^	; <UNPREDICTABLE>
 8013255:	6c646e61 	stclvs	14, cr6, [r4], #-388	; 0xfffffe7c
 8013259:	6e007265 	cdpvs	2, 0, cr7, cr0, cr5, {3}

0801325c <g_uart_baudrate_map>:
 801325c:	0000006e 	andeq	r0, r0, lr, rrx
 8013260:	0000012c 	andeq	r0, r0, ip, lsr #2
 8013264:	000004b0 			; <UNDEFINED> instruction: 0x000004b0
 8013268:	00000960 	andeq	r0, r0, r0, ror #18
 801326c:	000012c0 	andeq	r1, r0, r0, asr #5
 8013270:	00002580 	andeq	r2, r0, r0, lsl #11
 8013274:	00004b00 	andeq	r4, r0, r0, lsl #22
 8013278:	00009600 	andeq	r9, r0, r0, lsl #12
 801327c:	0000e100 	andeq	lr, r0, r0, lsl #2
 8013280:	0001c200 	andeq	ip, r1, r0, lsl #4
 8013284:	00038400 	andeq	r8, r3, r0, lsl #8
 8013288:	00070800 	andeq	r0, r7, r0, lsl #16
 801328c:	000e1000 	andeq	r1, lr, r0

08013290 <g_uart_port_to_irq_num>:
 8013290:	201f1e1d 	andscs	r1, pc, sp, lsl lr	; <UNPREDICTABLE>
 8013294:	2e2f2e2e 	cdpcs	14, 2, cr2, cr15, cr14, {1}
 8013298:	2e2e2f2e 	cdpcs	15, 2, cr2, cr14, cr14, {1}
 801329c:	2f2e2e2f 	svccs	0x002e2e2f
 80132a0:	642f2e2e 	strtvs	r2, [pc], #-3630	; 80132a8 <g_uart_port_to_irq_num+0x18>
 80132a4:	65766972 	ldrbvs	r6, [r6, #-2418]!	; 0x972
 80132a8:	68632f72 	stmdavs	r3!, {r1, r4, r5, r6, r8, r9, sl, fp, sp}^
 80132ac:	6d2f7069 	stcvs	0, cr7, [pc, #-420]!	; 8013110 <__func__.7074+0xf0>
 80132b0:	32353274 	eorscc	r3, r5, #116, 4	; 0x40000007
 80132b4:	72732f33 	rsbsvc	r2, r3, #51, 30	; 0xcc
 80132b8:	61682f63 	cmnvs	r8, r3, ror #30
 80132bc:	61755f6c 	cmnvs	r5, ip, ror #30
 80132c0:	695f7472 	ldmdbvs	pc, {r1, r4, r5, r6, sl, ip, sp, lr}^	; <UNPREDICTABLE>
 80132c4:	7265746e 	rsbvc	r7, r5, #1845493760	; 0x6e000000
 80132c8:	5f6c616e 	svcpl	0x006c616e
 80132cc:	74616c70 	strbtvc	r6, [r1], #-3184	; 0xc70
 80132d0:	6d726f66 	ldclvs	15, cr6, [r2, #-408]!	; 0xfffffe68
 80132d4:	2d00632e 	stccs	3, cr6, [r0, #-184]	; 0xffffff48

080132d7 <g_uart_port_to_pdn>:
 80132d7:	302f2e2d 	eorcc	r2, pc, sp, lsr #28

080132db <__func__.7027>:
 80132db:	74726175 	ldrbtvc	r6, [r2], #-373	; 0x175
 80132df:	746e695f 	strbtvc	r6, [lr], #-2399	; 0x95f
 80132e3:	75727265 	ldrbvc	r7, [r2, #-613]!	; 0x265
 80132e7:	685f7470 	ldmdavs	pc, {r4, r5, r6, sl, ip, sp, lr}^	; <UNPREDICTABLE>
 80132eb:	6c646e61 	stclvs	14, cr6, [r4], #-388	; 0xfffffe7c
 80132ef:	00007265 	andeq	r7, r0, r5, ror #4
	...

080132f4 <g_uart_regbase>:
 80132f4:	a00d0000 	andge	r0, sp, r0
 80132f8:	a00e0000 	andge	r0, lr, r0
 80132fc:	a00f0000 	andge	r0, pc, r0
 8013300:	a0100000 	andsge	r0, r0, r0

08013304 <CSWTCH.4>:
 8013304:	69030201 	stmdbvs	r3, {r0, r9}

08013307 <__FUNCTION__.7521>:
 8013307:	43727369 	cmnmi	r2, #-1543503871	; 0xa4000001
 801330b:	69616d5f 	stmdbvs	r1!, {r0, r1, r2, r3, r4, r6, r8, sl, fp, sp, lr}^
 801330f:	0000006e 	andeq	r0, r0, lr, rrx
	...

08013314 <defualt_irq_priority>:
 8013314:	00000005 	andeq	r0, r0, r5
 8013318:	00000044 	andeq	r0, r0, r4, asr #32
 801331c:	00000007 	andeq	r0, r0, r7
 8013320:	00000008 	andeq	r0, r0, r8
 8013324:	00000044 	andeq	r0, r0, r4, asr #32
 8013328:	00000044 	andeq	r0, r0, r4, asr #32
 801332c:	00000044 	andeq	r0, r0, r4, asr #32
 8013330:	00000044 	andeq	r0, r0, r4, asr #32
 8013334:	0000000d 	andeq	r0, r0, sp
 8013338:	0000000e 	andeq	r0, r0, lr
 801333c:	0000000f 	andeq	r0, r0, pc
 8013340:	00000010 	andeq	r0, r0, r0, lsl r0
 8013344:	00000011 	andeq	r0, r0, r1, lsl r0
 8013348:	00000012 	andeq	r0, r0, r2, lsl r0
 801334c:	00000013 	andeq	r0, r0, r3, lsl r0
 8013350:	00000014 	andeq	r0, r0, r4, lsl r0
 8013354:	00000015 	andeq	r0, r0, r5, lsl r0
 8013358:	00000016 	andeq	r0, r0, r6, lsl r0
 801335c:	00000017 	andeq	r0, r0, r7, lsl r0
 8013360:	00000018 	andeq	r0, r0, r8, lsl r0
 8013364:	00000019 	andeq	r0, r0, r9, lsl r0
 8013368:	0000001a 	andeq	r0, r0, sl, lsl r0
 801336c:	0000001b 	andeq	r0, r0, fp, lsl r0
 8013370:	0000001c 	andeq	r0, r0, ip, lsl r0
 8013374:	0000001d 	andeq	r0, r0, sp, lsl r0
 8013378:	0000001e 	andeq	r0, r0, lr, lsl r0
 801337c:	0000001f 	andeq	r0, r0, pc, lsl r0
 8013380:	00000044 	andeq	r0, r0, r4, asr #32
 8013384:	00000021 	andeq	r0, r0, r1, lsr #32
 8013388:	00000022 	andeq	r0, r0, r2, lsr #32
 801338c:	00000023 	andeq	r0, r0, r3, lsr #32
 8013390:	00000024 	andeq	r0, r0, r4, lsr #32
 8013394:	00000025 	andeq	r0, r0, r5, lsr #32
 8013398:	00000026 	andeq	r0, r0, r6, lsr #32
 801339c:	00000027 	andeq	r0, r0, r7, lsr #32
 80133a0:	00000028 	andeq	r0, r0, r8, lsr #32
 80133a4:	00000044 	andeq	r0, r0, r4, asr #32
 80133a8:	00000044 	andeq	r0, r0, r4, asr #32
 80133ac:	0000002b 	andeq	r0, r0, fp, lsr #32
 80133b0:	0000002c 	andeq	r0, r0, ip, lsr #32
 80133b4:	0000001a 	andeq	r0, r0, sl, lsl r0
 80133b8:	0000002e 	andeq	r0, r0, lr, lsr #32
 80133bc:	0000002f 	andeq	r0, r0, pc, lsr #32
 80133c0:	00000030 	andeq	r0, r0, r0, lsr r0
 80133c4:	00000031 	andeq	r0, r0, r1, lsr r0
 80133c8:	00000032 	andeq	r0, r0, r2, lsr r0
 80133cc:	00000033 	andeq	r0, r0, r3, lsr r0
 80133d0:	00000034 	andeq	r0, r0, r4, lsr r0
 80133d4:	00000035 	andeq	r0, r0, r5, lsr r0
 80133d8:	00000036 	andeq	r0, r0, r6, lsr r0
 80133dc:	00000044 	andeq	r0, r0, r4, asr #32
 80133e0:	00000044 	andeq	r0, r0, r4, asr #32
 80133e4:	00000044 	andeq	r0, r0, r4, asr #32
 80133e8:	00000044 	andeq	r0, r0, r4, asr #32
 80133ec:	00000044 	andeq	r0, r0, r4, asr #32
 80133f0:	00000044 	andeq	r0, r0, r4, asr #32
 80133f4:	00000044 	andeq	r0, r0, r4, asr #32
 80133f8:	00000044 	andeq	r0, r0, r4, asr #32
 80133fc:	00000044 	andeq	r0, r0, r4, asr #32
 8013400:	00000044 	andeq	r0, r0, r4, asr #32
 8013404:	00000044 	andeq	r0, r0, r4, asr #32
 8013408:	00000044 	andeq	r0, r0, r4, asr #32
 801340c:	00000044 	andeq	r0, r0, r4, asr #32
 8013410:	00000044 	andeq	r0, r0, r4, asr #32
 8013414:	4f525245 	svcmi	0x00525245
 8013418:	6e203a52 	mcrvs	10, 1, r3, cr0, cr2, {2}
 801341c:	5249206f 	subpl	r2, r9, #111	; 0x6f
 8013420:	61682051 	qdsubvs	r2, r1, r8
 8013424:	656c646e 	strbvs	r6, [ip, #-1134]!	; 0x46e
 8013428:	0a202172 	beq	881b9f8 <Image$$EPO$$ZI$$Base+0x42b9f8>
	...

0801342d <__func__.6454>:
 801342d:	5f494653 	svcpl	0x00494653
 8013431:	6e616c42 	cdpvs	12, 6, cr6, cr1, cr2, {2}
 8013435:	6568436b 	strbvs	r4, [r8, #-875]!	; 0x36b
 8013439:	2e006b63 	vmlscs.f64	d6, d0, d19
 801343d:	2e2e2f2e 	cdpcs	15, 2, cr2, cr14, cr14, {1}
 8013441:	2f2e2e2f 	svccs	0x002e2e2f
 8013445:	2e2f2e2e 	cdpcs	14, 2, cr2, cr15, cr14, {1}
 8013449:	72642f2e 	rsbvc	r2, r4, #46, 30	; 0xb8
 801344d:	72657669 	rsbvc	r7, r5, #110100480	; 0x6900000
 8013451:	6968632f 	stmdbvs	r8!, {r0, r1, r2, r3, r5, r8, r9, sp, lr}^
 8013455:	746d2f70 	strbtvc	r2, [sp], #-3952	; 0xf70
 8013459:	33323532 	teqcc	r2, #209715200	; 0xc800000
 801345d:	6372732f 	cmnvs	r2, #-1140850688	; 0xbc000000
 8013461:	6c61682f 	stclvs	8, cr6, [r1], #-188	; 0xffffff44
 8013465:	616c665f 	cmnvs	ip, pc, asr r6
 8013469:	6d5f6873 	ldclvs	8, cr6, [pc, #-460]	; 80132a4 <g_uart_port_to_irq_num+0x14>
 801346d:	635f6474 	cmpvs	pc, #116, 8	; 0x74000000
 8013471:	6f6d6d6f 	svcvs	0x006d6d6f
 8013475:	00632e6e 	rsbeq	r2, r3, lr, ror #28

08013479 <__func__.6466>:
 8013479:	5f494653 	svcpl	0x00494653
 801347d:	4563614d 	strbmi	r6, [r3, #-333]!	; 0x14d
 8013481:	6c62616e 	stfvse	f6, [r2], #-440	; 0xfffffe48
 8013485:	46530065 	ldrbmi	r0, [r3], -r5, rrx

08013487 <__func__.8547>:
 8013487:	445f4653 	ldrbmi	r4, [pc], #-1619	; 801348f <__func__.8547+0x8>
 801348b:	435f4c41 	cmpmi	pc, #16640	; 0x4100
 801348f:	6b636568 	blvs	98eca37 <Image$$EPO$$ZI$$Base+0x14fca37>
 8013493:	69766544 	ldmdbvs	r6!, {r2, r6, r8, sl, sp, lr}^
 8013497:	65526563 	ldrbvs	r6, [r2, #-1379]	; 0x563
 801349b:	00796461 	rsbseq	r6, r9, r1, ror #8

0801349f <__func__.8360>:
 801349f:	73616c46 	cmnvc	r1, #17920	; 0x4600
 80134a3:	75535f68 	ldrbvc	r5, [r3, #-3944]	; 0xf68
 80134a7:	6e657073 	mcrvs	0, 3, r7, cr5, cr3, {3}
 80134ab:	65704f64 	ldrbvs	r4, [r0, #-3940]!	; 0xf64
 80134af:	69746172 	ldmdbvs	r4!, {r1, r4, r5, r6, r8, sp, lr}^
 80134b3:	53006e6f 	movwpl	r6, #3695	; 0xe6f

080134b6 <__func__.8381>:
 80134b6:	445f4653 	ldrbmi	r4, [pc], #-1619	; 80134be <__func__.8381+0x8>
 80134ba:	465f4c41 	ldrbmi	r4, [pc], -r1, asr #24
 80134be:	44656572 	strbtmi	r6, [r5], #-1394	; 0x572
 80134c2:	6f4c7665 	svcvs	0x004c7665
 80134c6:	46006b63 	strmi	r6, [r0], -r3, ror #22

080134c9 <__func__.8335>:
 80134c9:	73616c46 	cmnvc	r1, #17920	; 0x4600
 80134cd:	65525f68 	ldrbvs	r5, [r2, #-3944]	; 0xf68
 80134d1:	6e727574 	mrcvs	5, 3, r7, cr2, cr4, {3}
 80134d5:	64616552 	strbtvs	r6, [r1], #-1362	; 0x552
 80134d9:	46530079 			; <UNDEFINED> instruction: 0x46530079

080134db <__func__.8447>:
 80134db:	445f4653 	ldrbmi	r4, [pc], #-1619	; 80134e3 <__func__.8447+0x8>
 80134df:	495f4c41 	ldmdbmi	pc, {r0, r6, sl, fp, lr}^	; <UNPREDICTABLE>
 80134e3:	7274434f 	rsbsvc	r4, r4, #1006632961	; 0x3c000001
 80134e7:	2e2e006c 	cdpcs	0, 2, cr0, cr14, cr12, {3}
 80134eb:	2f2e2e2f 	svccs	0x002e2e2f
 80134ef:	2e2f2e2e 	cdpcs	14, 2, cr2, cr15, cr14, {1}
 80134f3:	2e2e2f2e 	cdpcs	15, 2, cr2, cr14, cr14, {1}
 80134f7:	6972642f 	ldmdbvs	r2!, {r0, r1, r2, r3, r5, sl, sp, lr}^
 80134fb:	2f726576 	svccs	0x00726576
 80134ff:	70696863 	rsbvc	r6, r9, r3, ror #16
 8013503:	32746d2f 	rsbscc	r6, r4, #3008	; 0xbc0
 8013507:	2f333235 	svccs	0x00333235
 801350b:	2f637273 	svccs	0x00637273
 801350f:	5f6c6168 	svcpl	0x006c6168
 8013513:	73616c66 	cmnvc	r1, #26112	; 0x6600
 8013517:	746d5f68 	strbtvc	r5, [sp], #-3944	; 0xf68
 801351b:	61645f64 	cmnvs	r4, r4, ror #30
 801351f:	00632e6c 	rsbeq	r2, r3, ip, ror #28

08013523 <__func__.8537>:
 8013523:	445f4653 	ldrbmi	r4, [pc], #-1619	; 801352b <__func__.8537+0x8>
 8013527:	435f4c41 	cmpmi	pc, #16640	; 0x4100
 801352b:	6b636568 	blvs	98ecad3 <Image$$EPO$$ZI$$Base+0x14fcad3>
 801352f:	64616552 	strbtvs	r6, [r1], #-1362	; 0x552
 8013533:	646e4179 	strbtvs	r4, [lr], #-377	; 0x179
 8013537:	75736552 	ldrbvc	r6, [r3, #-1362]!	; 0x552
 801353b:	4600656d 	strmi	r6, [r0], -sp, ror #10

0801353e <__func__.8354>:
 801353e:	73616c46 	cmnvc	r1, #17920	; 0x4600
 8013542:	65525f68 	ldrbvs	r5, [r2, #-3944]	; 0xf68
 8013546:	656d7573 	strbvs	r7, [sp, #-1395]!	; 0x573
 801354a:	7265704f 	rsbvc	r7, r5, #79	; 0x4f
 801354e:	6f697461 	svcvs	0x00697461
 8013552:	4653006e 	ldrbmi	r0, [r3], -lr, rrx

08013554 <__func__.8410>:
 8013554:	445f4653 	ldrbmi	r4, [pc], #-1619	; 801355c <__func__.8410+0x8>
 8013558:	495f4c41 	ldmdbmi	pc, {r0, r6, sl, fp, lr}^	; <UNPREDICTABLE>
 801355c:	5f74696e 	svcpl	0x0074696e
 8013560:	646e6556 	strbtvs	r6, [lr], #-1366	; 0x556
 8013564:	5300726f 	movwpl	r7, #623	; 0x26f

08013567 <__func__.8476>:
 8013567:	445f4653 	ldrbmi	r4, [pc], #-1619	; 801356f <__func__.8476+0x8>
 801356b:	505f4c41 	subspl	r4, pc, r1, asr #24
 801356f:	72676f72 	rsbvc	r6, r7, #456	; 0x1c8
 8013573:	61446d61 	cmpvs	r4, r1, ror #26
 8013577:	72006174 	andvc	r6, r0, #116, 2

0801357a <__func__.8370>:
 801357a:	72746572 	rsbsvc	r6, r4, #478150656	; 0x1c800000
 801357e:	65766569 	ldrbvs	r6, [r6, #-1385]!	; 0x569
 8013582:	44544d5f 	ldrbmi	r4, [r4], #-3423	; 0xd5f
 8013586:	636f6c5f 	cmnvs	pc, #24320	; 0x5f00
 801358a:	4653006b 	ldrbmi	r0, [r3], -fp, rrx

0801358c <__func__.8499>:
 801358c:	445f4653 	ldrbmi	r4, [pc], #-1619	; 8013594 <__func__.8499+0x8>
 8013590:	455f4c41 	ldrbmi	r4, [pc, #-3137]	; 8012957 <_fflush_r+0x13>
 8013594:	65736172 	ldrbvs	r6, [r3, #-370]!	; 0x172
 8013598:	636f6c42 	cmnvs	pc, #16896	; 0x4200
 801359c:	6c46006b 	mcrrvs	0, 6, r0, r6, cr11

0801359e <__func__.8349>:
 801359e:	73616c46 	cmnvc	r1, #17920	; 0x4600
 80135a2:	68435f68 	stmdavs	r3, {r3, r5, r6, r8, r9, sl, fp, ip, lr}^
 80135a6:	526b6365 	rsbpl	r6, fp, #-1811939327	; 0x94000001
 80135aa:	79646165 	stmdbvc	r4!, {r0, r2, r5, r6, r8, sp, lr}^
	...

080135b0 <combo_mem_id_list>:
 80135b0:	014d4d4d 	cmpeq	sp, sp, asr #26
 80135b4:	01020044 	tsteq	r2, r4, asr #32
 80135b8:	00000001 	andeq	r0, r0, r1
 80135bc:	00000005 	andeq	r0, r0, r5
 80135c0:	28c20303 	stmiacs	r2, {r0, r1, r8, r9}^
 80135c4:	00000016 	andeq	r0, r0, r6, lsl r0
 80135c8:	03030000 	movweq	r0, #12288	; 0x3000
 80135cc:	001528c2 	andseq	r2, r5, r2, asr #17
 80135d0:	00000000 	andeq	r0, r0, r0
 80135d4:	70ef0303 	rscvc	r0, pc, r3, lsl #6
 80135d8:	00000016 	andeq	r0, r0, r6, lsl r0
 80135dc:	03030000 	movweq	r0, #12288	; 0x3000
 80135e0:	003825c2 	eorseq	r2, r8, r2, asr #11
 80135e4:	00000000 	andeq	r0, r0, r0
 80135e8:	40ef0303 	rscmi	r0, pc, r3, lsl #6
 80135ec:	00000018 	andeq	r0, r0, r8, lsl r0
 80135f0:	00000000 	andeq	r0, r0, r0

080135f4 <__func__.8207>:
 80135f4:	4d454d43 	stclmi	13, cr4, [r5, #-268]	; 0xfffffef4
 80135f8:	696e495f 	stmdbvs	lr!, {r0, r1, r2, r3, r4, r6, r8, fp, lr}^
 80135fc:	6f6e5f74 	svcvs	0x006e5f74
 8013600:	696c5f72 	stmdbvs	ip!, {r1, r4, r5, r6, r8, r9, sl, fp, ip, lr}^
 8013604:	2e007473 	mcrcs	4, 0, r7, cr0, cr3, {3}
 8013608:	2e2e2f2e 	cdpcs	15, 2, cr2, cr14, cr14, {1}
 801360c:	2f2e2e2f 	svccs	0x002e2e2f
 8013610:	2e2f2e2e 	cdpcs	14, 2, cr2, cr15, cr14, {1}
 8013614:	72642f2e 	rsbvc	r2, r4, #46, 30	; 0xb8
 8013618:	72657669 	rsbvc	r7, r5, #110100480	; 0x6900000
 801361c:	6968632f 	stmdbvs	r8!, {r0, r1, r2, r3, r5, r8, r9, sp, lr}^
 8013620:	746d2f70 	strbtvc	r2, [sp], #-3952	; 0xf70
 8013624:	33323532 	teqcc	r2, #209715200	; 0xc800000
 8013628:	6372732f 	cmnvs	r2, #-1140850688	; 0xbc000000
 801362c:	6c61682f 	stclvs	8, cr6, [r1], #-188	; 0xffffff44
 8013630:	616c665f 	cmnvs	ip, pc, asr r6
 8013634:	635f6873 	cmpvs	pc, #7536640	; 0x730000
 8013638:	6f626d6f 	svcvs	0x00626d6f
 801363c:	726f6e5f 	rsbvc	r6, pc, #1520	; 0x5f0
 8013640:	4300632e 	movwmi	r6, #814	; 0x32e

08013643 <__func__.8215>:
 8013643:	4d454d43 	stclmi	13, cr4, [r5, #-268]	; 0xfffffef4
 8013647:	696e495f 	stmdbvs	lr!, {r0, r1, r2, r3, r4, r6, r8, fp, lr}^
 801364b:	75465f74 	strbvc	r5, [r6, #-3956]	; 0xf74
 801364f:	72446c6c 	subvc	r6, r4, #108, 24	; 0x6c00
 8013653:	72657669 	rsbvc	r7, r5, #110100480	; 0x6900000
	...

08013658 <combo_mem_sw_list>:
 8013658:	014d4d4d 	cmpeq	sp, sp, asr #26
 801365c:	010302b8 			; <UNDEFINED> instruction: 0x010302b8
 8013660:	00000002 	andeq	r0, r0, r2
 8013664:	00000005 	andeq	r0, r0, r5
 8013668:	00400000 	subeq	r0, r0, r0
 801366c:	00000064 	andeq	r0, r0, r4, rrx
 8013670:	00000000 	andeq	r0, r0, r0
 8013674:	00001000 	andeq	r1, r0, r0
	...
 80136b0:	00400000 	subeq	r0, r0, r0
 80136b4:	00000001 	andeq	r0, r0, r1
	...
 80136f0:	00400000 	subeq	r0, r0, r0
 80136f4:	00000064 	andeq	r0, r0, r4, rrx
 80136f8:	00000000 	andeq	r0, r0, r0
 80136fc:	00001000 	andeq	r1, r0, r0
	...
 8013738:	00400000 	subeq	r0, r0, r0
 801373c:	00000001 	andeq	r0, r0, r1
	...
 8013778:	00400000 	subeq	r0, r0, r0
 801377c:	00000064 	andeq	r0, r0, r4, rrx
 8013780:	00000000 	andeq	r0, r0, r0
 8013784:	00001000 	andeq	r1, r0, r0
	...
 80137c0:	00400000 	subeq	r0, r0, r0
 80137c4:	00000001 	andeq	r0, r0, r1
	...
 8013800:	00400000 	subeq	r0, r0, r0
 8013804:	00000064 	andeq	r0, r0, r4, rrx
 8013808:	00000000 	andeq	r0, r0, r0
 801380c:	00001000 	andeq	r1, r0, r0
	...
 8013848:	00400000 	subeq	r0, r0, r0
 801384c:	00000001 	andeq	r0, r0, r1
	...
 8013888:	00400000 	subeq	r0, r0, r0
 801388c:	00000064 	andeq	r0, r0, r4, rrx
 8013890:	00000000 	andeq	r0, r0, r0
 8013894:	00001000 	andeq	r1, r0, r0
	...
 80138d0:	00400000 	subeq	r0, r0, r0
 80138d4:	00000001 	andeq	r0, r0, r1
	...

08013910 <__func__.8039>:
 8013910:	65657246 	strbvs	r7, [r5, #-582]!	; 0x246
 8013914:	4c4d4446 	cfstrdmi	mvd4, [sp], {70}	; 0x46
 8013918:	006b636f 	rsbeq	r6, fp, pc, ror #6

0801391c <__func__.8061>:
 801391c:	6e756f4d 	cdpvs	15, 7, cr6, cr5, cr13, {2}
 8013920:	76654474 			; <UNDEFINED> instruction: 0x76654474
 8013924:	00656369 	rsbeq	r6, r5, r9, ror #6
 8013928:	2e2f2e2e 	cdpcs	14, 2, cr2, cr15, cr14, {1}
 801392c:	2e2e2f2e 	cdpcs	15, 2, cr2, cr14, cr14, {1}
 8013930:	2f2e2e2f 	svccs	0x002e2e2f
 8013934:	642f2e2e 	strtvs	r2, [pc], #-3630	; 801393c <__func__.8061+0x20>
 8013938:	65766972 	ldrbvs	r6, [r6, #-2418]!	; 0x972
 801393c:	68632f72 	stmdavs	r3!, {r1, r4, r5, r6, r8, r9, sl, fp, sp}^
 8013940:	6d2f7069 	stcvs	0, cr7, [pc, #-420]!	; 80137a4 <combo_mem_sw_list+0x14c>
 8013944:	32353274 	eorscc	r3, r5, #116, 4	; 0x40000007
 8013948:	72732f33 	rsbsvc	r2, r3, #51, 30	; 0xcc
 801394c:	61682f63 	cmnvs	r8, r3, ror #30
 8013950:	6c665f6c 	stclvs	15, cr5, [r6], #-432	; 0xfffffe50
 8013954:	5f687361 	svcpl	0x00687361
 8013958:	6b736964 	blvs	9cedef0 <Image$$EPO$$ZI$$Base+0x18fdef0>
 801395c:	4700632e 	strmi	r6, [r0, -lr, lsr #6]

0801395f <__func__.8034>:
 801395f:	46746547 	ldrbtmi	r6, [r4], -r7, asr #10
 8013963:	6f4c4d44 	svcvs	0x004c4d44
 8013967:	44006b63 	strmi	r6, [r0], #-2915	; 0xb63

0801396a <__func__.6557>:
 801396a:	616c6544 	cmnvs	ip, r4, asr #10
 801396e:	68574179 	ldmdavs	r7, {r0, r3, r4, r5, r6, r8, lr}^
 8013972:	5f656c69 	svcpl	0x00656c69
 8013976:	00545355 	subseq	r5, r4, r5, asr r3
 801397a:	2e2f2e2e 	cdpcs	14, 2, cr2, cr15, cr14, {1}
 801397e:	2e2e2f2e 	cdpcs	15, 2, cr2, cr14, cr14, {1}
 8013982:	2f2e2e2f 	svccs	0x002e2e2f
 8013986:	642f2e2e 	strtvs	r2, [pc], #-3630	; 801398e <__func__.6557+0x24>
 801398a:	65766972 	ldrbvs	r6, [r6, #-2418]!	; 0x972
 801398e:	68632f72 	stmdavs	r3!, {r1, r4, r5, r6, r8, r9, sl, fp, sp}^
 8013992:	6d2f7069 	stcvs	0, cr7, [pc, #-420]!	; 80137f4 <combo_mem_sw_list+0x19c>
 8013996:	32353274 	eorscc	r3, r5, #116, 4	; 0x40000007
 801399a:	72732f33 	rsbsvc	r2, r3, #51, 30	; 0xcc
 801399e:	61682f63 	cmnvs	r8, r3, ror #30
 80139a2:	6c665f6c 	stclvs	15, cr5, [r6], #-432	; 0xfffffe50
 80139a6:	5f687361 	svcpl	0x00687361
 80139aa:	2e64746d 	cdpcs	4, 6, cr7, cr4, cr13, {3}
 80139ae:	614d0063 	cmpvs	sp, r3, rrx

080139b0 <__func__.6519>:
 80139b0:	5770614d 	ldrbpl	r6, [r0, -sp, asr #2]!
 80139b4:	6f646e69 	svcvs	0x00646e69
 80139b8:	0a0d0077 	beq	8353b9c <Load$$TCM$$Base+0x33e83c>
 80139bc:	6c500a0d 	mrrcvs	10, 0, r0, r0, cr13	; <UNPREDICTABLE>
 80139c0:	65736165 	ldrbvs	r6, [r3, #-357]!	; 0x165
 80139c4:	706e6920 	rsbvc	r6, lr, r0, lsr #18
 80139c8:	64207475 	strtvs	r7, [r0], #-1141	; 0x475
 80139cc:	20617461 	rsbcs	r7, r1, r1, ror #8
 80139d0:	74206f74 	strtvc	r6, [r0], #-3956	; 0xf74
 80139d4:	20736968 	rsbscs	r6, r3, r8, ror #18
 80139d8:	54524155 	ldrbpl	r4, [r2], #-341	; 0x155
 80139dc:	726f7020 	rsbvc	r7, pc, #32
 80139e0:	6e612074 	mcrvs	0, 3, r2, cr1, cr4, {3}
 80139e4:	61772064 	cmnvs	r7, r4, rrx
 80139e8:	20686374 	rsbcs	r6, r8, r4, ror r3
 80139ec:	73277469 	teqvc	r7, #1761607680	; 0x69000000
 80139f0:	74756f20 	ldrbtvc	r6, [r5], #-3872	; 0xf20
 80139f4:	3a747570 	bcc	9d30fbc <Image$$EPO$$ZI$$Base+0x1940fbc>
 80139f8:	63000a0d 	movwvs	r0, #2573	; 0xa0d

080139fb <__func__.7880>:
 80139fb:	636f6c63 	cmnvs	pc, #25344	; 0x6300
 80139ff:	68635f6b 	stmdavs	r3!, {r0, r1, r3, r5, r6, r8, r9, sl, fp, ip, lr}^
 8013a03:	65676e61 	strbvs	r6, [r7, #-3681]!	; 0xe61
 8013a07:	7469625f 	strbtvc	r6, [r9], #-607	; 0x25f
 8013a0b:	7265765f 	rsbvc	r7, r5, #99614720	; 0x5f00000
 8013a0f:	65696669 	strbvs	r6, [r9, #-1641]!	; 0x669
 8013a13:	6c615f64 	stclvs	15, cr5, [r1], #-400	; 0xfffffe70
 8013a17:	6c63006c 	stclvs	0, cr0, [r3], #-432	; 0xfffffe50

08013a19 <__FUNCTION__.8224>:
 8013a19:	636f6c63 	cmnvs	pc, #25344	; 0x6300
 8013a1d:	75645f6b 	strbvc	r5, [r4, #-3947]!	; 0xf6b
 8013a21:	695f706d 	ldmdbvs	pc, {r0, r2, r3, r5, r6, ip, sp, lr}^	; <UNPREDICTABLE>
 8013a25:	006f666e 	rsbeq	r6, pc, lr, ror #12
 8013a29:	2e2f2e2e 	cdpcs	14, 2, cr2, cr15, cr14, {1}
 8013a2d:	2e2e2f2e 	cdpcs	15, 2, cr2, cr14, cr14, {1}
 8013a31:	2f2e2e2f 	svccs	0x002e2e2f
 8013a35:	642f2e2e 	strtvs	r2, [pc], #-3630	; 8013a3d <__FUNCTION__.8224+0x24>
 8013a39:	65766972 	ldrbvs	r6, [r6, #-2418]!	; 0x972
 8013a3d:	68632f72 	stmdavs	r3!, {r1, r4, r5, r6, r8, r9, sl, fp, sp}^
 8013a41:	6d2f7069 	stcvs	0, cr7, [pc, #-420]!	; 80138a4 <combo_mem_sw_list+0x24c>
 8013a45:	32353274 	eorscc	r3, r5, #116, 4	; 0x40000007
 8013a49:	72732f33 	rsbsvc	r2, r3, #51, 30	; 0xcc
 8013a4d:	6f635f63 	svcvs	0x00635f63
 8013a51:	682f6572 	stmdavs	pc!, {r1, r4, r5, r6, r8, sl, sp, lr}	; <UNPREDICTABLE>
 8013a55:	635f6c61 	cmpvs	pc, #24832	; 0x6100
 8013a59:	6b636f6c 	blvs	98ef811 <Image$$EPO$$ZI$$Base+0x14ff811>
 8013a5d:	2500632e 	strcs	r6, [r0, #-814]	; 0x32e
 8013a61:	50203a73 	eorpl	r3, r0, r3, ror sl
 8013a65:	435f4e44 	cmpmi	pc, #68, 28	; 0x440
 8013a69:	30444e4f 	subcc	r4, r4, pc, asr #28
 8013a6d:	2578303d 	ldrbcs	r3, [r8, #-61]!	; 0x3d
 8013a71:	50202c78 	eorpl	r2, r0, r8, ror ip
 8013a75:	435f4e44 	cmpmi	pc, #68, 28	; 0x440
 8013a79:	31444e4f 	cmpcc	r4, pc, asr #28
 8013a7d:	2578303d 	ldrbcs	r3, [r8, #-61]!	; 0x3d
 8013a81:	50202c78 	eorpl	r2, r0, r8, ror ip
 8013a85:	435f4e44 	cmpmi	pc, #68, 28	; 0x440
 8013a89:	32444e4f 	subcc	r4, r4, #1264	; 0x4f0
 8013a8d:	2578303d 	ldrbcs	r3, [r8, #-61]!	; 0x3d
 8013a91:	43202c78 	teqmi	r0, #120, 24	; 0x7800
 8013a95:	44505f4d 	ldrbmi	r5, [r0], #-3917	; 0xf4d
 8013a99:	4f435f4e 	svcmi	0x00435f4e
 8013a9d:	3d30444e 	cfldrscc	mvf4, [r0, #-312]!	; 0xfffffec8
 8013aa1:	78257830 	stmdavc	r5!, {r4, r5, fp, ip, sp, lr}
 8013aa5:	4341202c 	movtmi	r2, #4140	; 0x102c
 8013aa9:	435f4746 	cmpmi	pc, #18350080	; 0x1180000
 8013aad:	435f4b4c 	cmpmi	pc, #76, 22	; 0x13000
 8013ab1:	78303d47 	ldmdavc	r0!, {r0, r1, r2, r6, r8, sl, fp, ip, sp}
 8013ab5:	0a0d7825 	beq	8371b51 <Load$$TCM$$Base+0x35c7f1>
 8013ab9:	3a732500 	bcc	9cdcec1 <Image$$EPO$$ZI$$Base+0x18ecec1>
 8013abd:	69642820 	stmdbvs	r4!, {r5, fp, sp}^
 8013ac1:	65646976 	strbvs	r6, [r4, #-2422]!	; 0x976
 8013ac5:	4c432972 	mcrrmi	9, 7, r2, r3, cr2
 8013ac9:	4f435f4b 	svcmi	0x00435f4b
 8013acd:	3d41444e 	cfstrdcc	mvd4, [r1, #-312]	; 0xfffffec8
 8013ad1:	78257830 	stmdavc	r5!, {r4, r5, fp, ip, sp, lr}
 8013ad5:	6d28202c 	stcvs	0, cr2, [r8, #-176]!	; 0xffffff50
 8013ad9:	43297875 	teqmi	r9, #7667712	; 0x750000
 8013add:	435f4b4c 	cmpmi	pc, #76, 22	; 0x13000
 8013ae1:	42444e4f 	submi	r4, r4, #1264	; 0x4f0
 8013ae5:	2578303d 	ldrbcs	r3, [r8, #-61]!	; 0x3d
 8013ae9:	28202c78 	stmdacs	r0!, {r3, r4, r5, r6, sl, fp, sp}
 8013aed:	2978756d 	ldmdbcs	r8!, {r0, r2, r3, r5, r6, r8, sl, ip, sp, lr}^
 8013af1:	4344534d 	movtmi	r5, #17229	; 0x434d
 8013af5:	46435f30 			; <UNDEFINED> instruction: 0x46435f30
 8013af9:	78303d47 	ldmdavc	r0!, {r0, r1, r2, r6, r8, sl, fp, ip, sp}
 8013afd:	202c7825 	eorcs	r7, ip, r5, lsr #16
 8013b01:	78756d28 	ldmdavc	r5!, {r3, r5, r8, sl, fp, sp, lr}^
 8013b05:	44534d29 	ldrbmi	r4, [r3], #-3369	; 0xd29
 8013b09:	435f3143 	cmpmi	pc, #-1073741808	; 0xc0000010
 8013b0d:	303d4746 	eorscc	r4, sp, r6, asr #14
 8013b11:	2c782578 	cfldr64cs	mvdx2, [r8], #-480	; 0xfffffe20
 8013b15:	6c702820 	ldclvs	8, cr2, [r0], #-128	; 0xffffff80
 8013b19:	65725f6c 	ldrbvs	r5, [r2, #-3948]!	; 0xf6c
 8013b1d:	4c432971 	mcrrmi	9, 7, r2, r3, cr1
 8013b21:	4f435f4b 	svcmi	0x00435f4b
 8013b25:	3d43444e 	cfstrdcc	mvd4, [r3, #-312]	; 0xfffffec8
 8013b29:	78257830 	stmdavc	r5!, {r4, r5, fp, ip, sp, lr}
 8013b2d:	6628202c 	strtvs	r2, [r8], -ip, lsr #32
